Archive member included to satisfy reference by file (symbol)

lib/bootloader.a(cymetadata.o)
                              (cy_metadata)
lib/bootloader.a(Cm3Start.o)  (Reset)
lib/bootloader.a(CyLib.o)     lib/bootloader.a(Cm3Start.o) (CyHalt)
lib/bootloader.a(CyBootAsmGnu.o)
                              lib/bootloader.a(CyLib.o) (CyDelayCycles)
lib/bootloader.a(cyfitter_cfg.o)
                              lib/bootloader.a(Cm3Start.o) (cyfitter_cfg)
lib/bootloader.a(Bootloader.o)
                              lib/bootloader.a(Cm3Start.o) (CyBtldr_CheckLaunch)
lib/bootloader.a(USBFS_boot.o)
                              lib/bootloader.a(Bootloader.o) (USBFS_CyBtldrCommStart)
lib/bootloader.a(cyPm.o)      lib/bootloader.a(CyLib.o) (CyPmReadStatus)
lib/bootloader.a(CyFlash.o)   lib/bootloader.a(Bootloader.o) (CySetTemp)
lib/bootloader.a(USBFS.o)     lib/bootloader.a(USBFS_boot.o) (USBFS_Start)
lib/bootloader.a(USBFS_hid.o)
                              lib/bootloader.a(USBFS.o) (USBFS_hidProtocol)
lib/bootloader.a(USBFS_Dp.o)  lib/bootloader.a(USBFS.o) (USBFS_Dp_ClearInterrupt)
lib/bootloader.a(USBFS_episr.o)
                              lib/bootloader.a(USBFS.o) (USBFS_EP_1_ISR)
lib/bootloader.a(USBFS_drv.o)
                              lib/bootloader.a(USBFS.o) (USBFS_lastPacketSize)
lib/bootloader.a(USBFS_cls.o)
                              lib/bootloader.a(USBFS_drv.o) (USBFS_DispatchClassRqst)
lib/bootloader.a(CySpc.o)     lib/bootloader.a(CyFlash.o) (CySpcStart)
lib/bootloader.a(USBFS_vnd.o)
                              lib/bootloader.a(USBFS_drv.o) (USBFS_HandleVendorRqst)
lib/bootloader.a(USBFS_pm.o)  lib/bootloader.a(USBFS.o) (USBFS_DP_ISR)
lib/bootloader.a(USBFS_std.o)
                              lib/bootloader.a(USBFS_pm.o) (USBFS_ConfigReg)
lib/bootloader.a(USBFS_descr.o)
                              lib/bootloader.a(USBFS_vnd.o) (USBFS_MSOS_CONFIGURATION_DESCR)
c:/program files (x86)/cypress/psoc creator/4.2/psoc creator/import/gnu/arm/5.4.1/bin/../lib/gcc/arm-none-eabi/5.4.1/../../../../arm-none-eabi/lib/armv7-m\libg_nano.a(lib_a-errno.o)
                              lib/bootloader.a(Cm3Start.o) (__errno)
c:/program files (x86)/cypress/psoc creator/4.2/psoc creator/import/gnu/arm/5.4.1/bin/../lib/gcc/arm-none-eabi/5.4.1/../../../../arm-none-eabi/lib/armv7-m\libg_nano.a(lib_a-exit.o)
                              c:/program files (x86)/cypress/psoc creator/4.2/psoc creator/import/gnu/arm/5.4.1/bin/../lib/gcc/arm-none-eabi/5.4.1/../../../../arm-none-eabi/lib/armv7-m/crt0.o (exit)
c:/program files (x86)/cypress/psoc creator/4.2/psoc creator/import/gnu/arm/5.4.1/bin/../lib/gcc/arm-none-eabi/5.4.1/../../../../arm-none-eabi/lib/armv7-m\libg_nano.a(lib_a-impure.o)
                              c:/program files (x86)/cypress/psoc creator/4.2/psoc creator/import/gnu/arm/5.4.1/bin/../lib/gcc/arm-none-eabi/5.4.1/../../../../arm-none-eabi/lib/armv7-m\libg_nano.a(lib_a-exit.o) (_global_impure_ptr)
c:/program files (x86)/cypress/psoc creator/4.2/psoc creator/import/gnu/arm/5.4.1/bin/../lib/gcc/arm-none-eabi/5.4.1/../../../../arm-none-eabi/lib/armv7-m\libg_nano.a(lib_a-init.o)
                              c:/program files (x86)/cypress/psoc creator/4.2/psoc creator/import/gnu/arm/5.4.1/bin/../lib/gcc/arm-none-eabi/5.4.1/../../../../arm-none-eabi/lib/armv7-m/crt0.o (__libc_init_array)
c:/program files (x86)/cypress/psoc creator/4.2/psoc creator/import/gnu/arm/5.4.1/bin/../lib/gcc/arm-none-eabi/5.4.1/../../../../arm-none-eabi/lib/armv7-m\libg_nano.a(lib_a-memcpy-stub.o)
                              lib/bootloader.a(cyfitter_cfg.o) (memcpy)
c:/program files (x86)/cypress/psoc creator/4.2/psoc creator/import/gnu/arm/5.4.1/bin/../lib/gcc/arm-none-eabi/5.4.1/../../../../arm-none-eabi/lib/armv7-m\libg_nano.a(lib_a-memset.o)
                              c:/program files (x86)/cypress/psoc creator/4.2/psoc creator/import/gnu/arm/5.4.1/bin/../lib/gcc/arm-none-eabi/5.4.1/../../../../arm-none-eabi/lib/armv7-m/crt0.o (memset)

Allocating common symbols
Common symbol       size              file

USBFS_deviceAddress
                    0x1               lib/bootloader.a(USBFS_drv.o)
USBFS_ep0Mode       0x1               lib/bootloader.a(USBFS_drv.o)
USBFS_interfaceSetting
                    0x1               lib/bootloader.a(USBFS_drv.o)
USBFS_DEVICE0_CONFIGURATION0_INTERFACE0_ALTERNATE0_HID_IN_RPT_SCB
                    0x4               lib/bootloader.a(USBFS_descr.o)
USBFS_hidIdleRate   0x1               lib/bootloader.a(USBFS_hid.o)
USBFS_currentTD     0xc               lib/bootloader.a(USBFS_drv.o)
USBFS_device        0x1               lib/bootloader.a(USBFS_drv.o)
USBFS_interfaceNumber
                    0x1               lib/bootloader.a(USBFS_drv.o)
USBFS_ep0Toggle     0x1               lib/bootloader.a(USBFS_drv.o)
USBFS_deviceStatus  0x1               lib/bootloader.a(USBFS_drv.o)
USBFS_DEVICE0_CONFIGURATION0_INTERFACE0_ALTERNATE0_HID_IN_BUF
                    0x41              lib/bootloader.a(USBFS_descr.o)
USBFS_configurationChanged
                    0x1               lib/bootloader.a(USBFS_drv.o)
USBFS_configuration
                    0x1               lib/bootloader.a(USBFS_drv.o)
USBFS_transferState
                    0x1               lib/bootloader.a(USBFS_drv.o)
USBFS_interfaceStatus
                    0x1               lib/bootloader.a(USBFS_drv.o)
USBFS_interfaceClass
                    0x4               lib/bootloader.a(USBFS_drv.o)
USBFS_EP            0x6c              lib/bootloader.a(USBFS_drv.o)
USBFS_DEVICE0_CONFIGURATION0_INTERFACE0_ALTERNATE0_HID_OUT_BUF
                    0x41              lib/bootloader.a(USBFS_descr.o)
USBFS_hidIdleTimer  0x1               lib/bootloader.a(USBFS_hid.o)
USBFS_lastPacketSize
                    0x1               lib/bootloader.a(USBFS_drv.o)
USBFS_hidProtocol   0x1               lib/bootloader.a(USBFS_hid.o)
USBFS_DEVICE0_CONFIGURATION0_INTERFACE0_ALTERNATE0_HID_OUT_RPT_SCB
                    0x4               lib/bootloader.a(USBFS_descr.o)
dieTemperature      0x2               lib/bootloader.a(CyFlash.o)
USBFS_ep0Count      0x1               lib/bootloader.a(USBFS_drv.o)
USBFS_interfaceSettingLast
                    0x1               lib/bootloader.a(USBFS_drv.o)
USBFS_transferByteCount
                    0x2               lib/bootloader.a(USBFS_drv.o)

Discarded input sections

 .text          0x00000000        0x0 c:/program files (x86)/cypress/psoc creator/4.2/psoc creator/import/gnu/arm/5.4.1/bin/../lib/gcc/arm-none-eabi/5.4.1/armv7-m/crti.o
 .data          0x00000000        0x0 c:/program files (x86)/cypress/psoc creator/4.2/psoc creator/import/gnu/arm/5.4.1/bin/../lib/gcc/arm-none-eabi/5.4.1/armv7-m/crti.o
 .bss           0x00000000        0x0 c:/program files (x86)/cypress/psoc creator/4.2/psoc creator/import/gnu/arm/5.4.1/bin/../lib/gcc/arm-none-eabi/5.4.1/armv7-m/crti.o
 .data          0x00000000        0x4 c:/program files (x86)/cypress/psoc creator/4.2/psoc creator/import/gnu/arm/5.4.1/bin/../lib/gcc/arm-none-eabi/5.4.1/armv7-m/crtbegin.o
 .text          0x00000000       0x74 c:/program files (x86)/cypress/psoc creator/4.2/psoc creator/import/gnu/arm/5.4.1/bin/../lib/gcc/arm-none-eabi/5.4.1/../../../../arm-none-eabi/lib/armv7-m/crt0.o
 .data          0x00000000        0x0 c:/program files (x86)/cypress/psoc creator/4.2/psoc creator/import/gnu/arm/5.4.1/bin/../lib/gcc/arm-none-eabi/5.4.1/../../../../arm-none-eabi/lib/armv7-m/crt0.o
 .bss           0x00000000        0x0 c:/program files (x86)/cypress/psoc creator/4.2/psoc creator/import/gnu/arm/5.4.1/bin/../lib/gcc/arm-none-eabi/5.4.1/../../../../arm-none-eabi/lib/armv7-m/crt0.o
 .ARM.extab     0x00000000        0x0 c:/program files (x86)/cypress/psoc creator/4.2/psoc creator/import/gnu/arm/5.4.1/bin/../lib/gcc/arm-none-eabi/5.4.1/../../../../arm-none-eabi/lib/armv7-m/crt0.o
 .ARM.exidx     0x00000000        0x8 c:/program files (x86)/cypress/psoc creator/4.2/psoc creator/import/gnu/arm/5.4.1/bin/../lib/gcc/arm-none-eabi/5.4.1/../../../../arm-none-eabi/lib/armv7-m/crt0.o
 .text          0x00000000        0x0 lib/bootloader.a(cymetadata.o)
 .data          0x00000000        0x0 lib/bootloader.a(cymetadata.o)
 .bss           0x00000000        0x0 lib/bootloader.a(cymetadata.o)
 .text          0x00000000        0x0 lib/bootloader.a(Cm3Start.o)
 .data          0x00000000        0x4 lib/bootloader.a(Cm3Start.o)
 .bss           0x00000000        0x0 lib/bootloader.a(Cm3Start.o)
 .text._exit    0x00000000        0xc lib/bootloader.a(Cm3Start.o)
 .text._sbrk    0x00000000       0x30 lib/bootloader.a(Cm3Start.o)
 .text          0x00000000        0x0 lib/bootloader.a(CyLib.o)
 .bss           0x00000000       0x1c lib/bootloader.a(CyLib.o)
 .text.CyUSB_PowerOnCheck
                0x00000000       0x48 lib/bootloader.a(CyLib.o)
 .text.CyBusClk_Internal_SetDivider
                0x00000000       0x48 lib/bootloader.a(CyLib.o)
 .text.CyPLL_OUT_Stop
                0x00000000       0x10 lib/bootloader.a(CyLib.o)
 .text.CyIMO_Stop
                0x00000000       0x1c lib/bootloader.a(CyLib.o)
 .text.CyIMO_EnableDoubler
                0x00000000       0x10 lib/bootloader.a(CyLib.o)
 .text.CyIMO_DisableDoubler
                0x00000000       0x10 lib/bootloader.a(CyLib.o)
 .text.CyMasterClk_SetSource
                0x00000000       0x18 lib/bootloader.a(CyLib.o)
 .text.CyMasterClk_SetDivider
                0x00000000        0xc lib/bootloader.a(CyLib.o)
 .text.CyBusClk_SetDivider
                0x00000000       0x70 lib/bootloader.a(CyLib.o)
 .text.CyUsbClk_SetSource
                0x00000000       0x18 lib/bootloader.a(CyLib.o)
 .text.CyILO_Start1K
                0x00000000       0x10 lib/bootloader.a(CyLib.o)
 .text.CyILO_Stop1K
                0x00000000       0x10 lib/bootloader.a(CyLib.o)
 .text.CyILO_Start100K
                0x00000000       0x10 lib/bootloader.a(CyLib.o)
 .text.CyILO_Stop100K
                0x00000000       0x10 lib/bootloader.a(CyLib.o)
 .text.CyPLL_OUT_Start
                0x00000000       0x78 lib/bootloader.a(CyLib.o)
 .text.CyIMO_Start
                0x00000000       0x60 lib/bootloader.a(CyLib.o)
 .text.CyILO_Enable33K
                0x00000000       0x10 lib/bootloader.a(CyLib.o)
 .text.CyILO_Disable33K
                0x00000000       0x10 lib/bootloader.a(CyLib.o)
 .text.CyILO_SetSource
                0x00000000       0x18 lib/bootloader.a(CyLib.o)
 .text.CyILO_SetPowerMode
                0x00000000       0x24 lib/bootloader.a(CyLib.o)
 .text.CyXTAL_32KHZ_Stop
                0x00000000       0x30 lib/bootloader.a(CyLib.o)
 .text.CyXTAL_32KHZ_ReadStatus
                0x00000000       0x10 lib/bootloader.a(CyLib.o)
 .text.CyXTAL_Start
                0x00000000       0xac lib/bootloader.a(CyLib.o)
 .text.CyXTAL_Stop
                0x00000000       0x10 lib/bootloader.a(CyLib.o)
 .text.CyXTAL_EnableErrStatus
                0x00000000       0x10 lib/bootloader.a(CyLib.o)
 .text.CyXTAL_DisableErrStatus
                0x00000000       0x10 lib/bootloader.a(CyLib.o)
 .text.CyXTAL_ReadStatus
                0x00000000       0x18 lib/bootloader.a(CyLib.o)
 .text.CyXTAL_EnableFaultRecovery
                0x00000000       0x10 lib/bootloader.a(CyLib.o)
 .text.CyXTAL_DisableFaultRecovery
                0x00000000       0x10 lib/bootloader.a(CyLib.o)
 .text.CyXTAL_SetStartup
                0x00000000       0x18 lib/bootloader.a(CyLib.o)
 .text.CyXTAL_SetFbVoltage
                0x00000000       0x18 lib/bootloader.a(CyLib.o)
 .text.CyXTAL_SetWdVoltage
                0x00000000       0x18 lib/bootloader.a(CyLib.o)
 .text.CyPLL_OUT_SetPQ
                0x00000000       0x60 lib/bootloader.a(CyLib.o)
 .text.CyPLL_OUT_SetSource
                0x00000000       0x34 lib/bootloader.a(CyLib.o)
 .text.CyIMO_SetTrimValue
                0x00000000       0xcc lib/bootloader.a(CyLib.o)
 .text.CyIMO_SetFreq
                0x00000000       0xf4 lib/bootloader.a(CyLib.o)
 .text.CyIMO_SetSource
                0x00000000       0x58 lib/bootloader.a(CyLib.o)
 .text.CyXTAL_32KHZ_SetPowerMode
                0x00000000       0x84 lib/bootloader.a(CyLib.o)
 .text.CyXTAL_32KHZ_Start
                0x00000000       0x74 lib/bootloader.a(CyLib.o)
 .text.CyDelayFreq
                0x00000000       0x4c lib/bootloader.a(CyLib.o)
 .text.CyWdtStart
                0x00000000       0x40 lib/bootloader.a(CyLib.o)
 .text.CyWdtClear
                0x00000000        0xc lib/bootloader.a(CyLib.o)
 .text.CyVdStickyStatus
                0x00000000       0x2c lib/bootloader.a(CyLib.o)
 .text.CyVdLvDigitEnable
                0x00000000       0x84 lib/bootloader.a(CyLib.o)
 .text.CyVdLvAnalogEnable
                0x00000000       0x80 lib/bootloader.a(CyLib.o)
 .text.CyVdLvDigitDisable
                0x00000000       0x30 lib/bootloader.a(CyLib.o)
 .text.CyVdLvAnalogDisable
                0x00000000       0x28 lib/bootloader.a(CyLib.o)
 .text.CyVdHvAnalogEnable
                0x00000000       0x54 lib/bootloader.a(CyLib.o)
 .text.CyVdHvAnalogDisable
                0x00000000       0x20 lib/bootloader.a(CyLib.o)
 .text.CyVdRealTimeStatus
                0x00000000       0x1c lib/bootloader.a(CyLib.o)
 .text.CyDisableInts
                0x00000000       0x1c lib/bootloader.a(CyLib.o)
 .text.CyEnableInts
                0x00000000       0x18 lib/bootloader.a(CyLib.o)
 .text.CyIntSetSysVector
                0x00000000       0x28 lib/bootloader.a(CyLib.o)
 .text.CyIntGetSysVector
                0x00000000       0x20 lib/bootloader.a(CyLib.o)
 .text.CyIntGetVector
                0x00000000       0x24 lib/bootloader.a(CyLib.o)
 .text.CyIntGetPriority
                0x00000000       0x20 lib/bootloader.a(CyLib.o)
 .text.CyIntGetState
                0x00000000       0x24 lib/bootloader.a(CyLib.o)
 .text.CySysTickStop
                0x00000000       0x10 lib/bootloader.a(CyLib.o)
 .text.CySysTickEnableInterrupt
                0x00000000       0x10 lib/bootloader.a(CyLib.o)
 .text.CySysTickEnable
                0x00000000       0x18 lib/bootloader.a(CyLib.o)
 .text.CySysTickDisableInterrupt
                0x00000000       0x10 lib/bootloader.a(CyLib.o)
 .text.CySysTickSetReload
                0x00000000       0x10 lib/bootloader.a(CyLib.o)
 .text.CySysTickGetReload
                0x00000000       0x10 lib/bootloader.a(CyLib.o)
 .text.CySysTickGetValue
                0x00000000       0x10 lib/bootloader.a(CyLib.o)
 .text.CySysTickSetClockSource
                0x00000000       0x20 lib/bootloader.a(CyLib.o)
 .text.CySysTickGetClockSource
                0x00000000       0x10 lib/bootloader.a(CyLib.o)
 .text.CySysTickGetCountFlag
                0x00000000       0x10 lib/bootloader.a(CyLib.o)
 .text.CySysTickServiceCallbacks
                0x00000000       0x28 lib/bootloader.a(CyLib.o)
 .text.CySysTickClear
                0x00000000        0xc lib/bootloader.a(CyLib.o)
 .text.CySysTickInit
                0x00000000       0x58 lib/bootloader.a(CyLib.o)
 .text.CySysTickStart
                0x00000000       0x1c lib/bootloader.a(CyLib.o)
 .text.CySysTickSetCallback
                0x00000000       0x10 lib/bootloader.a(CyLib.o)
 .text.CySysTickGetCallback
                0x00000000       0x10 lib/bootloader.a(CyLib.o)
 .text.CyGetUniqueId
                0x00000000       0x70 lib/bootloader.a(CyLib.o)
 .data          0x00000000        0x0 lib/bootloader.a(CyBootAsmGnu.o)
 .bss           0x00000000        0x0 lib/bootloader.a(CyBootAsmGnu.o)
 .text          0x00000000        0x0 lib/bootloader.a(cyfitter_cfg.o)
 .data          0x00000000        0x0 lib/bootloader.a(cyfitter_cfg.o)
 .bss           0x00000000        0x0 lib/bootloader.a(cyfitter_cfg.o)
 .text.SetAnalogRoutingPumps
                0x00000000       0x10 lib/bootloader.a(cyfitter_cfg.o)
 .text          0x00000000        0x0 lib/bootloader.a(Bootloader.o)
 .text.Bootloader_InitCallback
                0x00000000        0xc lib/bootloader.a(Bootloader.o)
 .text.Bootloader_SetFlashByte
                0x00000000       0x3c lib/bootloader.a(Bootloader.o)
 .text.Bootloader_Exit
                0x00000000       0x58 lib/bootloader.a(Bootloader.o)
 .text          0x00000000        0x0 lib/bootloader.a(USBFS_boot.o)
 .data          0x00000000        0x0 lib/bootloader.a(USBFS_boot.o)
 .text          0x00000000        0x0 lib/bootloader.a(cyPm.o)
 .data          0x00000000        0x0 lib/bootloader.a(cyPm.o)
 .bss           0x00000000       0x43 lib/bootloader.a(cyPm.o)
 .text.CyPmHibSlpSaveSet
                0x00000000      0x1dc lib/bootloader.a(cyPm.o)
 .text.CyPmHibSlpRestore
                0x00000000       0xd8 lib/bootloader.a(cyPm.o)
 .text.CyPmHviLviSaveDisable
                0x00000000       0xa0 lib/bootloader.a(cyPm.o)
 .text.CyPmHibSaveSet
                0x00000000       0x98 lib/bootloader.a(cyPm.o)
 .text.CyPmHviLviRestore
                0x00000000       0x48 lib/bootloader.a(cyPm.o)
 .text.CyPmHibRestore
                0x00000000       0x60 lib/bootloader.a(cyPm.o)
 .text.CyPmSaveClocks
                0x00000000      0x218 lib/bootloader.a(cyPm.o)
 .text.CyPmRestoreClocks
                0x00000000      0x24c lib/bootloader.a(cyPm.o)
 .text.CyPmAltAct
                0x00000000       0x6c lib/bootloader.a(cyPm.o)
 .text.CyPmSleep
                0x00000000       0xf4 lib/bootloader.a(cyPm.o)
 .text.CyPmHibernateEx
                0x00000000       0xf4 lib/bootloader.a(cyPm.o)
 .text.CyPmHibernate
                0x00000000        0xc lib/bootloader.a(cyPm.o)
 .text.CyPmReadStatus
                0x00000000       0x30 lib/bootloader.a(cyPm.o)
 .text.CyPmCtwSetInterval
                0x00000000       0x5c lib/bootloader.a(cyPm.o)
 .text.CyPmOppsSet
                0x00000000       0x2c lib/bootloader.a(cyPm.o)
 .text.CyPmFtwSetInterval
                0x00000000       0x5c lib/bootloader.a(cyPm.o)
 .rodata        0x00000000        0xf lib/bootloader.a(cyPm.o)
 .text          0x00000000        0x0 lib/bootloader.a(CyFlash.o)
 .data          0x00000000        0x0 lib/bootloader.a(CyFlash.o)
 .bss           0x00000000        0x0 lib/bootloader.a(CyFlash.o)
 .text.CyFlash_Start
                0x00000000       0x54 lib/bootloader.a(CyFlash.o)
 .text.CyFlash_Stop
                0x00000000       0x24 lib/bootloader.a(CyFlash.o)
 .text.CyFlash_EraseRow
                0x00000000       0x78 lib/bootloader.a(CyFlash.o)
 .text.CySetFlashEEBuffer
                0x00000000       0x20 lib/bootloader.a(CyFlash.o)
 .text.CyWriteRowData
                0x00000000       0x14 lib/bootloader.a(CyFlash.o)
 .text.CyFlash_SetWaitCycles
                0x00000000       0x7c lib/bootloader.a(CyFlash.o)
 .text.CyEEPROM_Stop
                0x00000000       0x24 lib/bootloader.a(CyFlash.o)
 .text.CyEEPROM_ReadReserve
                0x00000000       0x1c lib/bootloader.a(CyFlash.o)
 .text.CyEEPROM_ReadRelease
                0x00000000       0x10 lib/bootloader.a(CyFlash.o)
 .text          0x00000000        0x0 lib/bootloader.a(USBFS.o)
 .data          0x00000000        0x0 lib/bootloader.a(USBFS.o)
 .text.USBFS_CheckActivity
                0x00000000       0x20 lib/bootloader.a(USBFS.o)
 .text.USBFS_GetInterfaceSetting
                0x00000000        0xc lib/bootloader.a(USBFS.o)
 .text.USBFS_DisableOutEP
                0x00000000       0x18 lib/bootloader.a(USBFS.o)
 .text.USBFS_Force
                0x00000000        0xc lib/bootloader.a(USBFS.o)
 .text.USBFS_GetEPAckState
                0x00000000       0x20 lib/bootloader.a(USBFS.o)
 .text.USBFS_SetPowerStatus
                0x00000000       0x20 lib/bootloader.a(USBFS.o)
 .text.USBFS_RWUEnabled
                0x00000000       0x18 lib/bootloader.a(USBFS.o)
 .text.USBFS_GetDeviceAddress
                0x00000000       0x10 lib/bootloader.a(USBFS.o)
 .text.USBFS_EnableSofInt
                0x00000000       0x10 lib/bootloader.a(USBFS.o)
 .text.USBFS_DisableSofInt
                0x00000000       0x10 lib/bootloader.a(USBFS.o)
 .text          0x00000000        0x0 lib/bootloader.a(USBFS_hid.o)
 .data          0x00000000        0x0 lib/bootloader.a(USBFS_hid.o)
 .bss           0x00000000        0x0 lib/bootloader.a(USBFS_hid.o)
 .text.USBFS_UpdateHIDTimer
                0x00000000       0x3c lib/bootloader.a(USBFS_hid.o)
 .text.USBFS_GetProtocol
                0x00000000        0xc lib/bootloader.a(USBFS_hid.o)
 .text          0x00000000        0x0 lib/bootloader.a(USBFS_Dp.o)
 .data          0x00000000        0x0 lib/bootloader.a(USBFS_Dp.o)
 .bss           0x00000000        0x0 lib/bootloader.a(USBFS_Dp.o)
 .text.USBFS_Dp_Write
                0x00000000       0x18 lib/bootloader.a(USBFS_Dp.o)
 .text.USBFS_Dp_SetDriveMode
                0x00000000       0x18 lib/bootloader.a(USBFS_Dp.o)
 .text.USBFS_Dp_Read
                0x00000000       0x10 lib/bootloader.a(USBFS_Dp.o)
 .text.USBFS_Dp_ReadDataReg
                0x00000000       0x10 lib/bootloader.a(USBFS_Dp.o)
 .text.USBFS_Dp_SetInterruptMode
                0x00000000       0x14 lib/bootloader.a(USBFS_Dp.o)
 .text          0x00000000        0x0 lib/bootloader.a(USBFS_episr.o)
 .data          0x00000000        0x0 lib/bootloader.a(USBFS_episr.o)
 .bss           0x00000000        0x0 lib/bootloader.a(USBFS_episr.o)
 .text          0x00000000        0x0 lib/bootloader.a(USBFS_drv.o)
 .data          0x00000000        0x0 lib/bootloader.a(USBFS_drv.o)
 .bss           0x00000000        0x0 lib/bootloader.a(USBFS_drv.o)
 .text          0x00000000        0x0 lib/bootloader.a(USBFS_cls.o)
 .data          0x00000000        0x0 lib/bootloader.a(USBFS_cls.o)
 .bss           0x00000000        0x0 lib/bootloader.a(USBFS_cls.o)
 .text          0x00000000        0x0 lib/bootloader.a(CySpc.o)
 .data          0x00000000        0x0 lib/bootloader.a(CySpc.o)
 .text.CySpcStop
                0x00000000       0x24 lib/bootloader.a(CySpc.o)
 .text.CySpcLoadMultiByte
                0x00000000       0x78 lib/bootloader.a(CySpc.o)
 .text.CySpcLoadRow
                0x00000000       0x50 lib/bootloader.a(CySpc.o)
 .text.CySpcEraseSector
                0x00000000       0x3c lib/bootloader.a(CySpc.o)
 .text.CySpcEraseRow
                0x00000000       0x4c lib/bootloader.a(CySpc.o)
 .text          0x00000000        0x0 lib/bootloader.a(USBFS_vnd.o)
 .data          0x00000000        0x0 lib/bootloader.a(USBFS_vnd.o)
 .bss           0x00000000        0x0 lib/bootloader.a(USBFS_vnd.o)
 .text          0x00000000        0x0 lib/bootloader.a(USBFS_pm.o)
 .data          0x00000000        0x0 lib/bootloader.a(USBFS_pm.o)
 .bss           0x00000000        0x2 lib/bootloader.a(USBFS_pm.o)
 .text.USBFS_SaveConfig
                0x00000000        0x4 lib/bootloader.a(USBFS_pm.o)
 .text.USBFS_RestoreConfig
                0x00000000       0x1c lib/bootloader.a(USBFS_pm.o)
 .text.USBFS_Suspend
                0x00000000       0xc8 lib/bootloader.a(USBFS_pm.o)
 .text.USBFS_Resume
                0x00000000       0xbc lib/bootloader.a(USBFS_pm.o)
 .text          0x00000000        0x0 lib/bootloader.a(USBFS_std.o)
 .data          0x00000000        0x0 lib/bootloader.a(USBFS_std.o)
 .text.USBFS_EpStateInit
                0x00000000       0x44 lib/bootloader.a(USBFS_std.o)
 .text.USBFS_TerminateEP
                0x00000000       0x4c lib/bootloader.a(USBFS_std.o)
 .text          0x00000000        0x0 lib/bootloader.a(USBFS_descr.o)
 .data          0x00000000        0x0 lib/bootloader.a(USBFS_descr.o)
 .bss           0x00000000        0x0 lib/bootloader.a(USBFS_descr.o)
 .text          0x00000000        0x0 main.o
 .data          0x00000000        0x0 main.o
 .bss           0x00000000        0x0 main.o
 .text          0x00000000        0x0 c:/program files (x86)/cypress/psoc creator/4.2/psoc creator/import/gnu/arm/5.4.1/bin/../lib/gcc/arm-none-eabi/5.4.1/../../../../arm-none-eabi/lib/armv7-m\libg_nano.a(lib_a-errno.o)
 .data          0x00000000        0x0 c:/program files (x86)/cypress/psoc creator/4.2/psoc creator/import/gnu/arm/5.4.1/bin/../lib/gcc/arm-none-eabi/5.4.1/../../../../arm-none-eabi/lib/armv7-m\libg_nano.a(lib_a-errno.o)
 .bss           0x00000000        0x0 c:/program files (x86)/cypress/psoc creator/4.2/psoc creator/import/gnu/arm/5.4.1/bin/../lib/gcc/arm-none-eabi/5.4.1/../../../../arm-none-eabi/lib/armv7-m\libg_nano.a(lib_a-errno.o)
 .text          0x00000000        0x0 c:/program files (x86)/cypress/psoc creator/4.2/psoc creator/import/gnu/arm/5.4.1/bin/../lib/gcc/arm-none-eabi/5.4.1/../../../../arm-none-eabi/lib/armv7-m\libg_nano.a(lib_a-exit.o)
 .data          0x00000000        0x0 c:/program files (x86)/cypress/psoc creator/4.2/psoc creator/import/gnu/arm/5.4.1/bin/../lib/gcc/arm-none-eabi/5.4.1/../../../../arm-none-eabi/lib/armv7-m\libg_nano.a(lib_a-exit.o)
 .bss           0x00000000        0x0 c:/program files (x86)/cypress/psoc creator/4.2/psoc creator/import/gnu/arm/5.4.1/bin/../lib/gcc/arm-none-eabi/5.4.1/../../../../arm-none-eabi/lib/armv7-m\libg_nano.a(lib_a-exit.o)
 .text.exit     0x00000000       0x28 c:/program files (x86)/cypress/psoc creator/4.2/psoc creator/import/gnu/arm/5.4.1/bin/../lib/gcc/arm-none-eabi/5.4.1/../../../../arm-none-eabi/lib/armv7-m\libg_nano.a(lib_a-exit.o)
 .text          0x00000000        0x0 c:/program files (x86)/cypress/psoc creator/4.2/psoc creator/import/gnu/arm/5.4.1/bin/../lib/gcc/arm-none-eabi/5.4.1/../../../../arm-none-eabi/lib/armv7-m\libg_nano.a(lib_a-impure.o)
 .data          0x00000000        0x0 c:/program files (x86)/cypress/psoc creator/4.2/psoc creator/import/gnu/arm/5.4.1/bin/../lib/gcc/arm-none-eabi/5.4.1/../../../../arm-none-eabi/lib/armv7-m\libg_nano.a(lib_a-impure.o)
 .bss           0x00000000        0x0 c:/program files (x86)/cypress/psoc creator/4.2/psoc creator/import/gnu/arm/5.4.1/bin/../lib/gcc/arm-none-eabi/5.4.1/../../../../arm-none-eabi/lib/armv7-m\libg_nano.a(lib_a-impure.o)
 .rodata._global_impure_ptr
                0x00000000        0x4 c:/program files (x86)/cypress/psoc creator/4.2/psoc creator/import/gnu/arm/5.4.1/bin/../lib/gcc/arm-none-eabi/5.4.1/../../../../arm-none-eabi/lib/armv7-m\libg_nano.a(lib_a-impure.o)
 .text          0x00000000        0x0 c:/program files (x86)/cypress/psoc creator/4.2/psoc creator/import/gnu/arm/5.4.1/bin/../lib/gcc/arm-none-eabi/5.4.1/../../../../arm-none-eabi/lib/armv7-m\libg_nano.a(lib_a-init.o)
 .data          0x00000000        0x0 c:/program files (x86)/cypress/psoc creator/4.2/psoc creator/import/gnu/arm/5.4.1/bin/../lib/gcc/arm-none-eabi/5.4.1/../../../../arm-none-eabi/lib/armv7-m\libg_nano.a(lib_a-init.o)
 .bss           0x00000000        0x0 c:/program files (x86)/cypress/psoc creator/4.2/psoc creator/import/gnu/arm/5.4.1/bin/../lib/gcc/arm-none-eabi/5.4.1/../../../../arm-none-eabi/lib/armv7-m\libg_nano.a(lib_a-init.o)
 .text          0x00000000        0x0 c:/program files (x86)/cypress/psoc creator/4.2/psoc creator/import/gnu/arm/5.4.1/bin/../lib/gcc/arm-none-eabi/5.4.1/../../../../arm-none-eabi/lib/armv7-m\libg_nano.a(lib_a-memcpy-stub.o)
 .data          0x00000000        0x0 c:/program files (x86)/cypress/psoc creator/4.2/psoc creator/import/gnu/arm/5.4.1/bin/../lib/gcc/arm-none-eabi/5.4.1/../../../../arm-none-eabi/lib/armv7-m\libg_nano.a(lib_a-memcpy-stub.o)
 .bss           0x00000000        0x0 c:/program files (x86)/cypress/psoc creator/4.2/psoc creator/import/gnu/arm/5.4.1/bin/../lib/gcc/arm-none-eabi/5.4.1/../../../../arm-none-eabi/lib/armv7-m\libg_nano.a(lib_a-memcpy-stub.o)
 .text          0x00000000        0x0 c:/program files (x86)/cypress/psoc creator/4.2/psoc creator/import/gnu/arm/5.4.1/bin/../lib/gcc/arm-none-eabi/5.4.1/../../../../arm-none-eabi/lib/armv7-m\libg_nano.a(lib_a-memset.o)
 .data          0x00000000        0x0 c:/program files (x86)/cypress/psoc creator/4.2/psoc creator/import/gnu/arm/5.4.1/bin/../lib/gcc/arm-none-eabi/5.4.1/../../../../arm-none-eabi/lib/armv7-m\libg_nano.a(lib_a-memset.o)
 .bss           0x00000000        0x0 c:/program files (x86)/cypress/psoc creator/4.2/psoc creator/import/gnu/arm/5.4.1/bin/../lib/gcc/arm-none-eabi/5.4.1/../../../../arm-none-eabi/lib/armv7-m\libg_nano.a(lib_a-memset.o)
 .text          0x00000000        0x0 c:/program files (x86)/cypress/psoc creator/4.2/psoc creator/import/gnu/arm/5.4.1/bin/../lib/gcc/arm-none-eabi/5.4.1/armv7-m/crtend.o
 .data          0x00000000        0x0 c:/program files (x86)/cypress/psoc creator/4.2/psoc creator/import/gnu/arm/5.4.1/bin/../lib/gcc/arm-none-eabi/5.4.1/armv7-m/crtend.o
 .bss           0x00000000        0x0 c:/program files (x86)/cypress/psoc creator/4.2/psoc creator/import/gnu/arm/5.4.1/bin/../lib/gcc/arm-none-eabi/5.4.1/armv7-m/crtend.o
 .text          0x00000000        0x0 c:/program files (x86)/cypress/psoc creator/4.2/psoc creator/import/gnu/arm/5.4.1/bin/../lib/gcc/arm-none-eabi/5.4.1/armv7-m/crtn.o
 .data          0x00000000        0x0 c:/program files (x86)/cypress/psoc creator/4.2/psoc creator/import/gnu/arm/5.4.1/bin/../lib/gcc/arm-none-eabi/5.4.1/armv7-m/crtn.o
 .bss           0x00000000        0x0 c:/program files (x86)/cypress/psoc creator/4.2/psoc creator/import/gnu/arm/5.4.1/bin/../lib/gcc/arm-none-eabi/5.4.1/armv7-m/crtn.o

Memory Configuration

Name             Origin             Length             Attributes
rom              0x00000000         0x00040000         xr
ram              0x1fff8000         0x00010000         xrw
*default*        0x00000000         0xffffffff

Linker script and memory map

LOAD c:/program files (x86)/cypress/psoc creator/4.2/psoc creator/import/gnu/arm/5.4.1/bin/../lib/gcc/arm-none-eabi/5.4.1/armv7-m/crti.o
LOAD c:/program files (x86)/cypress/psoc creator/4.2/psoc creator/import/gnu/arm/5.4.1/bin/../lib/gcc/arm-none-eabi/5.4.1/armv7-m/crtbegin.o
LOAD c:/program files (x86)/cypress/psoc creator/4.2/psoc creator/import/gnu/arm/5.4.1/bin/../lib/gcc/arm-none-eabi/5.4.1/../../../../arm-none-eabi/lib/armv7-m/crt0.o
LOAD lib/bootloader.a
LOAD main.o
START GROUP
LOAD c:/program files (x86)/cypress/psoc creator/4.2/psoc creator/import/gnu/arm/5.4.1/bin/../lib/gcc/arm-none-eabi/5.4.1/armv7-m\libgcc.a
LOAD c:/program files (x86)/cypress/psoc creator/4.2/psoc creator/import/gnu/arm/5.4.1/bin/../lib/gcc/arm-none-eabi/5.4.1/../../../../arm-none-eabi/lib/armv7-m\libg_nano.a
LOAD c:/program files (x86)/cypress/psoc creator/4.2/psoc creator/import/gnu/arm/5.4.1/bin/../lib/gcc/arm-none-eabi/5.4.1/../../../../arm-none-eabi/lib/armv7-m\libc_nano.a
END GROUP
START GROUP
LOAD c:/program files (x86)/cypress/psoc creator/4.2/psoc creator/import/gnu/arm/5.4.1/bin/../lib/gcc/arm-none-eabi/5.4.1/armv7-m\libgcc.a
LOAD c:/program files (x86)/cypress/psoc creator/4.2/psoc creator/import/gnu/arm/5.4.1/bin/../lib/gcc/arm-none-eabi/5.4.1/../../../../arm-none-eabi/lib/armv7-m\libc_nano.a
END GROUP
LOAD c:/program files (x86)/cypress/psoc creator/4.2/psoc creator/import/gnu/arm/5.4.1/bin/../lib/gcc/arm-none-eabi/5.4.1/armv7-m/crtend.o
LOAD c:/program files (x86)/cypress/psoc creator/4.2/psoc creator/import/gnu/arm/5.4.1/bin/../lib/gcc/arm-none-eabi/5.4.1/armv7-m/crtn.o
START GROUP
LOAD c:/program files (x86)/cypress/psoc creator/4.2/psoc creator/import/gnu/arm/5.4.1/bin/../lib/gcc/arm-none-eabi/5.4.1/armv7-m\libgcc.a
LOAD c:/program files (x86)/cypress/psoc creator/4.2/psoc creator/import/gnu/arm/5.4.1/bin/../lib/gcc/arm-none-eabi/5.4.1/../../../../arm-none-eabi/lib/armv7-m\libc.a
LOAD c:/program files (x86)/cypress/psoc creator/4.2/psoc creator/import/gnu/arm/5.4.1/bin/../lib/gcc/arm-none-eabi/5.4.1/../../../../arm-none-eabi/lib/armv7-m\libnosys.a
END GROUP
                0x00000000                CY_APPL_ORIGIN = 0x0
                0x00000100                CY_FLASH_ROW_SIZE = 0x100
                0x00000020                CY_ECC_ROW_SIZE = 0x20
                0x00000000                CY_EE_IN_BTLDR = 0x0
                0x00000000                CY_APPL_LOADABLE = 0x0
                0x00000800                CY_EE_SIZE = 0x800
                0x00000001                CY_APPL_NUM = 0x1
                0x00000001                CY_APPL_MAX = 0x1
                0x00000040                CY_METADATA_SIZE = 0x40
                0x00000000                CY_APPL_LOADABLE = 0x0
                0x00000000                CY_CHECKSUM_EXCLUDE_SIZE = ALIGN (0x0, CY_FLASH_ROW_SIZE)
                [!provide]                PROVIDE (__cy_heap_start, _end)
                0x00000001                PROVIDE (__cy_region_num, ((__cy_regions_end - __cy_regions) / 0x10))
                0x20008000                PROVIDE (__cy_stack, (ORIGIN (ram) + LENGTH (ram)))
                [!provide]                PROVIDE (__cy_heap_end, (__cy_stack - 0x800))

.cybootloader   0x00000000        0x0
 *(.cybootloader)
                0x00000000                appl1_start = CY_APPL_ORIGIN?CY_APPL_ORIGIN:ALIGN (CY_FLASH_ROW_SIZE)
                0x0001ff00                appl2_start = (appl1_start + ALIGN ((((LENGTH (rom) - appl1_start) - (0x2 * CY_FLASH_ROW_SIZE)) / 0x2), CY_FLASH_ROW_SIZE))
                0x00000000                appl_start = (CY_APPL_NUM == 0x1)?appl1_start:appl2_start
                0x00000000                ecc_offset = ((appl_start / CY_FLASH_ROW_SIZE) * CY_ECC_ROW_SIZE)
                0x00000000                ee_offset = (CY_APPL_LOADABLE && ! (CY_EE_IN_BTLDR))?((CY_EE_SIZE / CY_APPL_MAX) * (CY_APPL_NUM - 0x1)):0x0
                0x00000800                ee_size = (CY_APPL_LOADABLE && ! (CY_EE_IN_BTLDR))?(CY_EE_SIZE / CY_APPL_MAX):CY_EE_SIZE
                [!provide]                PROVIDE (CY_ECC_OFFSET, ecc_offset)

.text           0x00000000     0x2785
 CREATE_OBJECT_SYMBOLS
                0x00000000                PROVIDE (__cy_interrupt_vector, RomVectors)
 *(.romvectors)
 .romvectors    0x00000000       0x10 lib/bootloader.a(Cm3Start.o)
                0x00000000                RomVectors
                0x00000001                ASSERT ((. != __cy_interrupt_vector), No interrupt vector)
                0x00000001                ASSERT (CY_APPL_ORIGIN?(SIZEOF (.cybootloader) <= CY_APPL_ORIGIN):0x1, Wrong image location)
                0x00000010                PROVIDE (__cy_reset, Reset)
 *(.text.Reset)
 .text.Reset    0x00000010       0x1c lib/bootloader.a(Cm3Start.o)
                0x00000010                Reset
                0x00000001                ASSERT ((. != __cy_reset), No reset code)
 *(.dma_init)
                0x00000001                ASSERT ((((appl_start + .) <= 0x10000) || 0x1), DMA Init must be within the first 64k of flash)
 *(.text .text.* .gnu.linkonce.t.*)
 .text          0x0000002c       0x5c c:/program files (x86)/cypress/psoc creator/4.2/psoc creator/import/gnu/arm/5.4.1/bin/../lib/gcc/arm-none-eabi/5.4.1/armv7-m/crtbegin.o
 .text.IntDefaultHandler
                0x00000088       0x10 lib/bootloader.a(Cm3Start.o)
                0x00000088                IntDefaultHandler
 .text.Start_c  0x00000098       0x4c lib/bootloader.a(Cm3Start.o)
                0x00000098                Start_c
 .text.initialize_psoc
                0x000000e4       0x68 lib/bootloader.a(Cm3Start.o)
                0x000000e4                initialize_psoc
 .text.CyHalt   0x0000014c        0x4 lib/bootloader.a(CyLib.o)
                0x0000014c                CyHalt
 .text.CySoftwareReset
                0x00000150       0x10 lib/bootloader.a(CyLib.o)
                0x00000150                CySoftwareReset
 .text.CyDelay  0x00000160       0x2c lib/bootloader.a(CyLib.o)
                0x00000160                CyDelay
 .text.CyDelayUs
                0x0000018c       0x14 lib/bootloader.a(CyLib.o)
                0x0000018c                CyDelayUs
 .text.CyFlushCache
                0x000001a0       0x44 lib/bootloader.a(CyLib.o)
                0x000001a0                CyFlushCache
 .text.CyIntSetVector
                0x000001e4       0x28 lib/bootloader.a(CyLib.o)
                0x000001e4                CyIntSetVector
 .text.CyIntSetPriority
                0x0000020c       0x30 lib/bootloader.a(CyLib.o)
                0x0000020c                CyIntSetPriority
 *fill*         0x0000023c        0x4 
 .text          0x00000240       0x20 lib/bootloader.a(CyBootAsmGnu.o)
                0x00000240                CyDelayCycles
                0x00000250                CyEnterCriticalSection
                0x00000258                CyExitCriticalSection
 .text.cfg_write_bytes32
                0x00000260       0x34 lib/bootloader.a(cyfitter_cfg.o)
 .text.ClockSetup
                0x00000294       0x50 lib/bootloader.a(cyfitter_cfg.o)
 .text.AnalogSetDefault
                0x000002e4       0x28 lib/bootloader.a(cyfitter_cfg.o)
 .text.CYMEMZERO
                0x0000030c        0xc lib/bootloader.a(cyfitter_cfg.o)
 .text.CYCONFIGCPYCODE
                0x00000318        0x8 lib/bootloader.a(cyfitter_cfg.o)
 .text.CYCONFIGCPY
                0x00000320        0x8 lib/bootloader.a(cyfitter_cfg.o)
 .text.cyfitter_cfg
                0x00000328       0x98 lib/bootloader.a(cyfitter_cfg.o)
                0x00000328                cyfitter_cfg
 .text.Bootloader_CalcPacketChecksum
                0x000003c0       0x1c lib/bootloader.a(Bootloader.o)
 .text.Bootloader_VerifyRow
                0x000003dc       0x24 lib/bootloader.a(Bootloader.o)
 .text.Bootloader_LaunchBootloadable
                0x00000400        0x4 lib/bootloader.a(Bootloader.o)
 .text.Bootloader_LaunchApplication
                0x00000404       0x14 lib/bootloader.a(Bootloader.o)
 .text.Bootloader_WritePacket
                0x00000418       0x54 lib/bootloader.a(Bootloader.o)
 .text.Bootloader_Calc8BitSum
                0x0000046c       0x30 lib/bootloader.a(Bootloader.o)
                0x0000046c                Bootloader_Calc8BitSum
 .text.Bootloader_GetMetadata
                0x0000049c      0x12c lib/bootloader.a(Bootloader.o)
                0x0000049c                Bootloader_GetMetadata
 .text.CyBtldr_CheckLaunch
                0x000005c8       0x30 lib/bootloader.a(Bootloader.o)
                0x000005c8                CyBtldr_CheckLaunch
 .text.Bootloader_ValidateBootloadable
                0x000005f8       0x94 lib/bootloader.a(Bootloader.o)
                0x000005f8                Bootloader_ValidateBootloadable
 .text.Bootloader_HostLink
                0x0000068c      0x570 lib/bootloader.a(Bootloader.o)
 .text.Bootloader_Start
                0x00000bfc       0x68 lib/bootloader.a(Bootloader.o)
                0x00000bfc                Bootloader_Start
 .text.USBFS_CyBtldrCommStart
                0x00000c64       0x18 lib/bootloader.a(USBFS_boot.o)
                0x00000c64                USBFS_CyBtldrCommStart
 .text.USBFS_CyBtldrCommStop
                0x00000c7c        0x8 lib/bootloader.a(USBFS_boot.o)
                0x00000c7c                USBFS_CyBtldrCommStop
 .text.USBFS_CyBtldrCommReset
                0x00000c84        0xc lib/bootloader.a(USBFS_boot.o)
                0x00000c84                USBFS_CyBtldrCommReset
 .text.USBFS_CyBtldrCommWrite
                0x00000c90       0x44 lib/bootloader.a(USBFS_boot.o)
                0x00000c90                USBFS_CyBtldrCommWrite
 .text.USBFS_CyBtldrCommRead
                0x00000cd4       0xa0 lib/bootloader.a(USBFS_boot.o)
                0x00000cd4                USBFS_CyBtldrCommRead
 .text.CySetTempInt
                0x00000d74       0x60 lib/bootloader.a(CyFlash.o)
 .text.CyFlashGetSpcAlgorithm
                0x00000dd4       0x4c lib/bootloader.a(CyFlash.o)
                0x00000dd4                CyFlashGetSpcAlgorithm
 .text.CySetTemp
                0x00000e20       0x14 lib/bootloader.a(CyFlash.o)
                0x00000e20                CySetTemp
 .text.CyWriteRowFull
                0x00000e34       0xf8 lib/bootloader.a(CyFlash.o)
                0x00000e34                CyWriteRowFull
 .text.CyEEPROM_Start
                0x00000f2c       0x54 lib/bootloader.a(CyFlash.o)
                0x00000f2c                CyEEPROM_Start
 .text.USBFS_Init
                0x00000f80      0x12c lib/bootloader.a(USBFS.o)
                0x00000f80                USBFS_Init
 .text.USBFS_InitComponent
                0x000010ac       0xcc lib/bootloader.a(USBFS.o)
                0x000010ac                USBFS_InitComponent
 .text.USBFS_Start
                0x00001178       0x24 lib/bootloader.a(USBFS.o)
                0x00001178                USBFS_Start
 .text.USBFS_ReInitComponent
                0x0000119c       0x64 lib/bootloader.a(USBFS.o)
                0x0000119c                USBFS_ReInitComponent
 .text.USBFS_Stop
                0x00001200       0xb4 lib/bootloader.a(USBFS.o)
                0x00001200                USBFS_Stop
 .text.USBFS_GetConfiguration
                0x000012b4        0xc lib/bootloader.a(USBFS.o)
                0x000012b4                USBFS_GetConfiguration
 .text.USBFS_IsConfigurationChanged
                0x000012c0       0x20 lib/bootloader.a(USBFS.o)
                0x000012c0                USBFS_IsConfigurationChanged
 .text.USBFS_GetEPState
                0x000012e0       0x14 lib/bootloader.a(USBFS.o)
                0x000012e0                USBFS_GetEPState
 .text.USBFS_GetEPCount
                0x000012f4       0x28 lib/bootloader.a(USBFS.o)
                0x000012f4                USBFS_GetEPCount
 .text.USBFS_LoadInEP
                0x0000131c       0x94 lib/bootloader.a(USBFS.o)
                0x0000131c                USBFS_LoadInEP
 .text.USBFS_EnableOutEP
                0x000013b0       0x2c lib/bootloader.a(USBFS.o)
                0x000013b0                USBFS_EnableOutEP
 .text.USBFS_ReadOutEP
                0x000013dc       0x50 lib/bootloader.a(USBFS.o)
                0x000013dc                USBFS_ReadOutEP
 .text.USBFS_FindHidClassDecriptor
                0x0000142c       0x44 lib/bootloader.a(USBFS_hid.o)
                0x0000142c                USBFS_FindHidClassDecriptor
 .text.USBFS_FindReportDescriptor
                0x00001470       0x4c lib/bootloader.a(USBFS_hid.o)
                0x00001470                USBFS_FindReportDescriptor
 .text.USBFS_FindReport
                0x000014bc       0x7c lib/bootloader.a(USBFS_hid.o)
                0x000014bc                USBFS_FindReport
 .text.USBFS_DispatchHIDClassRqst
                0x00001538      0x184 lib/bootloader.a(USBFS_hid.o)
                0x00001538                USBFS_DispatchHIDClassRqst
 .text.USBFS_Dp_ClearInterrupt
                0x000016bc       0x10 lib/bootloader.a(USBFS_Dp.o)
                0x000016bc                USBFS_Dp_ClearInterrupt
 .text.USBFS_EP_1_ISR
                0x000016cc       0x30 lib/bootloader.a(USBFS_episr.o)
                0x000016cc                USBFS_EP_1_ISR
 .text.USBFS_EP_2_ISR
                0x000016fc       0x34 lib/bootloader.a(USBFS_episr.o)
                0x000016fc                USBFS_EP_2_ISR
 .text.USBFS_SOF_ISR
                0x00001730        0x4 lib/bootloader.a(USBFS_episr.o)
                0x00001730                USBFS_SOF_ISR
 .text.USBFS_BUS_RESET_ISR
                0x00001734        0x8 lib/bootloader.a(USBFS_episr.o)
                0x00001734                USBFS_BUS_RESET_ISR
 .text.USBFS_LoadEP0
                0x0000173c       0x98 lib/bootloader.a(USBFS_drv.o)
                0x0000173c                USBFS_LoadEP0
 .text.USBFS_InitZeroLengthControlTransfer
                0x000017d4       0x34 lib/bootloader.a(USBFS_drv.o)
                0x000017d4                USBFS_InitZeroLengthControlTransfer
 .text.USBFS_ControlReadDataStage
                0x00001808        0x8 lib/bootloader.a(USBFS_drv.o)
                0x00001808                USBFS_ControlReadDataStage
 .text.USBFS_ControlWriteDataStage
                0x00001810       0x84 lib/bootloader.a(USBFS_drv.o)
                0x00001810                USBFS_ControlWriteDataStage
 .text.USBFS_InitNoDataControlTransfer
                0x00001894       0x2c lib/bootloader.a(USBFS_drv.o)
                0x00001894                USBFS_InitNoDataControlTransfer
 .text.USBFS_UpdateStatusBlock
                0x000018c0       0x24 lib/bootloader.a(USBFS_drv.o)
                0x000018c0                USBFS_UpdateStatusBlock
 .text.USBFS_HandleSetup
                0x000018e4       0x5c lib/bootloader.a(USBFS_drv.o)
                0x000018e4                USBFS_HandleSetup
 .text.USBFS_ControlReadStatusStage
                0x00001940       0x38 lib/bootloader.a(USBFS_drv.o)
                0x00001940                USBFS_ControlReadStatusStage
 .text.USBFS_HandleOUT
                0x00001978       0x38 lib/bootloader.a(USBFS_drv.o)
                0x00001978                USBFS_HandleOUT
 .text.USBFS_ControlWriteStatusStage
                0x000019b0       0x20 lib/bootloader.a(USBFS_drv.o)
                0x000019b0                USBFS_ControlWriteStatusStage
 .text.USBFS_NoDataControlStatusStage
                0x000019d0       0x40 lib/bootloader.a(USBFS_drv.o)
                0x000019d0                USBFS_NoDataControlStatusStage
 .text.USBFS_HandleIN
                0x00001a10       0x2c lib/bootloader.a(USBFS_drv.o)
                0x00001a10                USBFS_HandleIN
 .text.USBFS_EP_0_ISR
                0x00001a3c       0xb8 lib/bootloader.a(USBFS_drv.o)
                0x00001a3c                USBFS_EP_0_ISR
 .text.USBFS_InitializeStatusBlock
                0x00001af4       0x24 lib/bootloader.a(USBFS_drv.o)
                0x00001af4                USBFS_InitializeStatusBlock
 .text.USBFS_InitControlRead
                0x00001b18       0x50 lib/bootloader.a(USBFS_drv.o)
                0x00001b18                USBFS_InitControlRead
 .text.USBFS_InitControlWrite
                0x00001b68       0x48 lib/bootloader.a(USBFS_drv.o)
                0x00001b68                USBFS_InitControlWrite
 .text.USBFS_DispatchClassRqst
                0x00001bb0       0x58 lib/bootloader.a(USBFS_cls.o)
                0x00001bb0                USBFS_DispatchClassRqst
 .text.CySpcStart
                0x00001c08       0x24 lib/bootloader.a(CySpc.o)
                0x00001c08                CySpcStart
 .text.CySpcReadData
                0x00001c2c       0x34 lib/bootloader.a(CySpc.o)
                0x00001c2c                CySpcReadData
 .text.CySpcLoadRowFull
                0x00001c60       0x80 lib/bootloader.a(CySpc.o)
                0x00001c60                CySpcLoadRowFull
 .text.CySpcWriteRow
                0x00001ce0       0x4c lib/bootloader.a(CySpc.o)
                0x00001ce0                CySpcWriteRow
 .text.CySpcGetTemp
                0x00001d2c       0x3c lib/bootloader.a(CySpc.o)
                0x00001d2c                CySpcGetTemp
 .text.CySpcLock
                0x00001d68       0x4c lib/bootloader.a(CySpc.o)
                0x00001d68                CySpcLock
 .text.CySpcUnlock
                0x00001db4       0x38 lib/bootloader.a(CySpc.o)
                0x00001db4                CySpcUnlock
 .text.CySpcGetAlgorithm
                0x00001dec       0x28 lib/bootloader.a(CySpc.o)
                0x00001dec                CySpcGetAlgorithm
 .text.USBFS_HandleVendorRqst
                0x00001e14       0x3c lib/bootloader.a(USBFS_vnd.o)
                0x00001e14                USBFS_HandleVendorRqst
 .text.USBFS_DP_ISR
                0x00001e50        0x8 lib/bootloader.a(USBFS_pm.o)
                0x00001e50                USBFS_DP_ISR
 .text.USBFS_ConfigReg
                0x00001e58       0xa4 lib/bootloader.a(USBFS_std.o)
                0x00001e58                USBFS_ConfigReg
 .text.USBFS_GetConfigTablePtr
                0x00001efc       0x28 lib/bootloader.a(USBFS_std.o)
                0x00001efc                USBFS_GetConfigTablePtr
 .text.USBFS_ConfigAltChanged
                0x00001f24      0x11c lib/bootloader.a(USBFS_std.o)
                0x00001f24                USBFS_ConfigAltChanged
 .text.USBFS_GetDeviceTablePtr
                0x00002040       0x18 lib/bootloader.a(USBFS_std.o)
                0x00002040                USBFS_GetDeviceTablePtr
 .text.USBFS_GetInterfaceClassTablePtr
                0x00002058       0x28 lib/bootloader.a(USBFS_std.o)
                0x00002058                USBFS_GetInterfaceClassTablePtr
 .text.USBFS_Config
                0x00002080      0x1cc lib/bootloader.a(USBFS_std.o)
                0x00002080                USBFS_Config
 .text.USBFS_SetEndpointHalt
                0x0000224c       0x64 lib/bootloader.a(USBFS_std.o)
                0x0000224c                USBFS_SetEndpointHalt
 .text.USBFS_ClearEndpointHalt
                0x000022b0       0xa8 lib/bootloader.a(USBFS_std.o)
                0x000022b0                USBFS_ClearEndpointHalt
 .text.USBFS_ValidateAlternateSetting
                0x00002358       0x4c lib/bootloader.a(USBFS_std.o)
                0x00002358                USBFS_ValidateAlternateSetting
 .text.USBFS_HandleStandardRqst
                0x000023a4      0x354 lib/bootloader.a(USBFS_std.o)
                0x000023a4                USBFS_HandleStandardRqst
 .text.main     0x000026f8        0x8 main.o
                0x000026f8                main
 .text.__errno  0x00002700        0xc c:/program files (x86)/cypress/psoc creator/4.2/psoc creator/import/gnu/arm/5.4.1/bin/../lib/gcc/arm-none-eabi/5.4.1/../../../../arm-none-eabi/lib/armv7-m\libg_nano.a(lib_a-errno.o)
                0x00002700                __errno
 .text.__libc_init_array
                0x0000270c       0x4c c:/program files (x86)/cypress/psoc creator/4.2/psoc creator/import/gnu/arm/5.4.1/bin/../lib/gcc/arm-none-eabi/5.4.1/../../../../arm-none-eabi/lib/armv7-m\libg_nano.a(lib_a-init.o)
                0x0000270c                __libc_init_array
 .text.memcpy   0x00002758       0x16 c:/program files (x86)/cypress/psoc creator/4.2/psoc creator/import/gnu/arm/5.4.1/bin/../lib/gcc/arm-none-eabi/5.4.1/../../../../arm-none-eabi/lib/armv7-m\libg_nano.a(lib_a-memcpy-stub.o)
                0x00002758                memcpy
 .text.memset   0x0000276e       0x10 c:/program files (x86)/cypress/psoc creator/4.2/psoc creator/import/gnu/arm/5.4.1/bin/../lib/gcc/arm-none-eabi/5.4.1/../../../../arm-none-eabi/lib/armv7-m\libg_nano.a(lib_a-memset.o)
                0x0000276e                memset
 *(.plt)
 *(.gnu.warning)
 *(.glue_7t)
 .glue_7t       0x0000277e        0x0 linker stubs
 *(.glue_7)
 .glue_7        0x0000277e        0x0 linker stubs
 *(.vfp11_veneer)
 .vfp11_veneer  0x0000277e        0x0 linker stubs
 *(.bootloader)
 *fill*         0x0000277e        0x2 
 .bootloader    0x00002780        0x5 lib/bootloader.a(Bootloader.o)
                0x00002780                Bootloader_SizeBytes
                0x00002784                Bootloader_Checksum
 *(.ARM.extab* .gnu.linkonce.armextab.*)
 *(.gcc_except_table)

.v4_bx          0x00002788        0x0
 .v4_bx         0x00002788        0x0 linker stubs

.iplt           0x00002788        0x0
 .iplt          0x00002788        0x0 c:/program files (x86)/cypress/psoc creator/4.2/psoc creator/import/gnu/arm/5.4.1/bin/../lib/gcc/arm-none-eabi/5.4.1/armv7-m/crtbegin.o

.eh_frame_hdr
 *(.eh_frame_hdr)

.eh_frame       0x00002788        0x4
 *(.eh_frame)
 .eh_frame      0x00002788        0x0 c:/program files (x86)/cypress/psoc creator/4.2/psoc creator/import/gnu/arm/5.4.1/bin/../lib/gcc/arm-none-eabi/5.4.1/armv7-m/crtbegin.o
 .eh_frame      0x00002788        0x4 c:/program files (x86)/cypress/psoc creator/4.2/psoc creator/import/gnu/arm/5.4.1/bin/../lib/gcc/arm-none-eabi/5.4.1/armv7-m/crtend.o
                [!provide]                PROVIDE (__exidx_start, .)

.ARM.exidx
 *(.ARM.exidx* .gnu.linkonce.armexidx.*)
                0x0000278c                __exidx_end = .

.rodata         0x0000278c      0x274
 *(.rodata .rodata.* .gnu.linkonce.r.*)
 .rodata        0x0000278c       0x92 lib/bootloader.a(cyfitter_cfg.o)
 *fill*         0x0000281e        0x2 
 .rodata        0x00002820        0x8 lib/bootloader.a(Bootloader.o)
 .rodata        0x00002828      0x19e lib/bootloader.a(USBFS_descr.o)
                0x00002828                USBFS_MSOS_CONFIGURATION_DESCR
                0x00002850                USBFS_MSOS_DESCRIPTOR
                0x00002864                USBFS_TABLE
                0x0000286c                USBFS_DEVICE0_TABLE
                0x00002884                USBFS_DEVICE0_CONFIGURATION0_TABLE
                0x000028a4                USBFS_DEVICE0_CONFIGURATION0_INTERFACE_CLASS
                0x000028a8                USBFS_DEVICE0_CONFIGURATION0_EP_SETTINGS_TABLE
                0x000028b8                USBFS_DEVICE0_CONFIGURATION0_INTERFACE0_TABLE
                0x000028c0                USBFS_DEVICE0_CONFIGURATION0_INTERFACE0_ALTERNATE0_HID_TABLE
                0x000028e8                USBFS_DEVICE0_CONFIGURATION0_INTERFACE0_ALTERNATE0_HID_OUT_RPT_TABLE
                0x000028f4                USBFS_DEVICE0_CONFIGURATION0_INTERFACE0_ALTERNATE0_HID_IN_RPT_TABLE
                0x00002900                USBFS_HIDREPORT_DESCRIPTOR1
                0x00002928                USBFS_SN_STRING_DESCRIPTOR
                0x00002934                USBFS_STRING_DESCRIPTORS
                0x00002988                USBFS_DEVICE0_CONFIGURATION0_DESCR
                0x000029b4                USBFS_DEVICE0_DESCR
 .rodata.str1.1
                0x000029c6        0x2 c:/program files (x86)/cypress/psoc creator/4.2/psoc creator/import/gnu/arm/5.4.1/bin/../lib/gcc/arm-none-eabi/5.4.1/../../../../arm-none-eabi/lib/armv7-m\libg_nano.a(lib_a-impure.o)
                0x000029c8                . = ALIGN (0x4)
 *(.init)
 .init          0x000029c8        0x4 c:/program files (x86)/cypress/psoc creator/4.2/psoc creator/import/gnu/arm/5.4.1/bin/../lib/gcc/arm-none-eabi/5.4.1/armv7-m/crti.o
                0x000029c8                _init
 .init          0x000029cc        0x8 c:/program files (x86)/cypress/psoc creator/4.2/psoc creator/import/gnu/arm/5.4.1/bin/../lib/gcc/arm-none-eabi/5.4.1/armv7-m/crtn.o
                0x000029d4                . = ALIGN (0x4)
                0x000029d4                __preinit_array_start = .
 *(.preinit_array)
                0x000029d4                __preinit_array_end = .
                0x000029d4                . = ALIGN (0x4)
                0x000029d4                __init_array_start = .
 *(SORT(.init_array.*))
 *(.init_array)
 .init_array    0x000029d4        0x4 c:/program files (x86)/cypress/psoc creator/4.2/psoc creator/import/gnu/arm/5.4.1/bin/../lib/gcc/arm-none-eabi/5.4.1/armv7-m/crtbegin.o
 .init_array    0x000029d8        0x4 lib/bootloader.a(Cm3Start.o)
                0x000029dc                __init_array_end = .
                0x000029dc                . = ALIGN (0x4)
 *(.fini)
 .fini          0x000029dc        0x4 c:/program files (x86)/cypress/psoc creator/4.2/psoc creator/import/gnu/arm/5.4.1/bin/../lib/gcc/arm-none-eabi/5.4.1/armv7-m/crti.o
                0x000029dc                _fini
 .fini          0x000029e0        0x8 c:/program files (x86)/cypress/psoc creator/4.2/psoc creator/import/gnu/arm/5.4.1/bin/../lib/gcc/arm-none-eabi/5.4.1/armv7-m/crtn.o
                0x000029e8                . = ALIGN (0x4)
                0x000029e8                __fini_array_start = .
 *(.fini_array)
 .fini_array    0x000029e8        0x4 c:/program files (x86)/cypress/psoc creator/4.2/psoc creator/import/gnu/arm/5.4.1/bin/../lib/gcc/arm-none-eabi/5.4.1/armv7-m/crtbegin.o
 *(SORT(.fini_array.*))
                0x000029ec                __fini_array_end = .
                0x000029ec                . = ALIGN (0x4)
 *crtbegin.o(.ctors)
 *(EXCLUDE_FILE(*crtend.o) .ctors)
 *(SORT(.ctors.*))
 *crtend.o(.ctors)
                0x000029ec                . = ALIGN (0x4)
 *crtbegin.o(.dtors)
 *(EXCLUDE_FILE(*crtend.o) .dtors)
 *(SORT(.dtors.*))
 *crtend.o(.dtors)
                0x000029ec                . = ALIGN (0x4)
                0x000029ec                __cy_regions = .
                0x000029ec        0x4 LONG 0x2a00 __cy_region_init_ram
                0x000029f0        0x4 LONG 0x1fff80c8 __cy_region_start_data
                0x000029f4        0x4 LONG 0x80 __cy_region_init_size_ram
                0x000029f8        0x4 LONG 0x168 __cy_region_zero_size_ram
                0x000029fc                __cy_regions_end = .
                0x00002a00                . = ALIGN (0x8)
 *fill*         0x000029fc        0x4 
                0x00002a00                _etext = .

.cy_checksum_exclude
                0x00002a00        0x0
 *(.cy_checksum_exclude)

.ramvectors     0x1fff8000       0xc0
                0x1fff8000                __cy_region_start_ram = .
 *(.ramvectors)
 .ramvectors    0x1fff8000       0xc0 lib/bootloader.a(Cm3Start.o)
                0x1fff8000                CyRamVectors

.noinit         0x1fff80c0        0x1
 *(.noinit)
 .noinit        0x1fff80c0        0x1 lib/bootloader.a(CyLib.o)
                0x1fff80c0                CyResetStatus

.data           0x1fff80c8       0x80 load address 0x00002a00
                0x1fff80c8                __cy_region_start_data = .
 *(.jcr)
 .jcr           0x1fff80c8        0x0 c:/program files (x86)/cypress/psoc creator/4.2/psoc creator/import/gnu/arm/5.4.1/bin/../lib/gcc/arm-none-eabi/5.4.1/armv7-m/crtbegin.o
 .jcr           0x1fff80c8        0x4 c:/program files (x86)/cypress/psoc creator/4.2/psoc creator/import/gnu/arm/5.4.1/bin/../lib/gcc/arm-none-eabi/5.4.1/armv7-m/crtend.o
 *(.got.plt)
 *(.got)
 *(.shdata)
 *(.data .data.* .gnu.linkonce.d.*)
 .data          0x1fff80cc       0x10 lib/bootloader.a(CyLib.o)
                0x1fff80cc                cydelay_32k_ms
                0x1fff80d0                cydelay_freq_khz
                0x1fff80d4                cydelay_freq_mhz
                0x1fff80d8                cydelay_freq_hz
 .data          0x1fff80dc        0x8 lib/bootloader.a(Bootloader.o)
                0x1fff80dc                Bootloader_SizeBytesAccess
                0x1fff80e0                Bootloader_ChecksumAccess
 .data.impure_data
                0x1fff80e4       0x60 c:/program files (x86)/cypress/psoc creator/4.2/psoc creator/import/gnu/arm/5.4.1/bin/../lib/gcc/arm-none-eabi/5.4.1/../../../../arm-none-eabi/lib/armv7-m\libg_nano.a(lib_a-impure.o)
 .data._impure_ptr
                0x1fff8144        0x4 c:/program files (x86)/cypress/psoc creator/4.2/psoc creator/import/gnu/arm/5.4.1/bin/../lib/gcc/arm-none-eabi/5.4.1/../../../../arm-none-eabi/lib/armv7-m\libg_nano.a(lib_a-impure.o)
                0x1fff8144                _impure_ptr
                0x1fff8148                . = ALIGN (0x8)
 *(.ram)
                0x1fff8148                _edata = .

.igot.plt       0x1fff8148        0x0 load address 0x00002a80
 .igot.plt      0x1fff8148        0x0 c:/program files (x86)/cypress/psoc creator/4.2/psoc creator/import/gnu/arm/5.4.1/bin/../lib/gcc/arm-none-eabi/5.4.1/armv7-m/crtbegin.o

.bss            0x1fff8148      0x168 load address 0x00002a80
                0x1fff8148                PROVIDE (__bss_start__, .)
 *(.shbss)
 *(.bss .bss.* .gnu.linkonce.b.*)
 .bss           0x1fff8148       0x1c c:/program files (x86)/cypress/psoc creator/4.2/psoc creator/import/gnu/arm/5.4.1/bin/../lib/gcc/arm-none-eabi/5.4.1/armv7-m/crtbegin.o
 .bss           0x1fff8164        0x4 lib/bootloader.a(Bootloader.o)
 .bss           0x1fff8168        0x1 lib/bootloader.a(USBFS_boot.o)
 .bss           0x1fff8169        0x1 lib/bootloader.a(USBFS.o)
                0x1fff8169                USBFS_initVar
 *fill*         0x1fff816a        0x2 
 .bss           0x1fff816c        0x8 lib/bootloader.a(CySpc.o)
                0x1fff816c                SpcLockState
 .bss           0x1fff8174        0x2 lib/bootloader.a(USBFS_std.o)
 *(COMMON)
 *fill*         0x1fff8176        0x2 
 COMMON         0x1fff8178        0x2 lib/bootloader.a(CyFlash.o)
                0x1fff8178                dieTemperature
 *fill*         0x1fff817a        0x2 
 COMMON         0x1fff817c        0x9 lib/bootloader.a(USBFS_hid.o)
                0x1fff817c                USBFS_hidIdleRate
                0x1fff8180                USBFS_hidIdleTimer
                0x1fff8184                USBFS_hidProtocol
 *fill*         0x1fff8185        0x3 
 COMMON         0x1fff8188       0x98 lib/bootloader.a(USBFS_drv.o)
                0x1fff8188                USBFS_deviceAddress
                0x1fff8189                USBFS_ep0Mode
                0x1fff818c                USBFS_interfaceSetting
                0x1fff8190                USBFS_currentTD
                0x1fff819c                USBFS_device
                0x1fff819d                USBFS_interfaceNumber
                0x1fff819e                USBFS_ep0Toggle
                0x1fff819f                USBFS_deviceStatus
                0x1fff81a0                USBFS_configurationChanged
                0x1fff81a1                USBFS_configuration
                0x1fff81a2                USBFS_transferState
                0x1fff81a4                USBFS_interfaceStatus
                0x1fff81a8                USBFS_interfaceClass
                0x1fff81ac                USBFS_EP
                0x1fff8218                USBFS_lastPacketSize
                0x1fff8219                USBFS_ep0Count
                0x1fff821c                USBFS_interfaceSettingLast
                0x1fff821e                USBFS_transferByteCount
 COMMON         0x1fff8220       0x90 lib/bootloader.a(USBFS_descr.o)
                0x1fff8220                USBFS_DEVICE0_CONFIGURATION0_INTERFACE0_ALTERNATE0_HID_IN_RPT_SCB
                0x1fff8224                USBFS_DEVICE0_CONFIGURATION0_INTERFACE0_ALTERNATE0_HID_IN_BUF
                0x1fff8268                USBFS_DEVICE0_CONFIGURATION0_INTERFACE0_ALTERNATE0_HID_OUT_BUF
                0x1fff82ac                USBFS_DEVICE0_CONFIGURATION0_INTERFACE0_ALTERNATE0_HID_OUT_RPT_SCB
                0x1fff82b0                . = ALIGN (0x8)
 *(.ram.b)
                0x1fff82b0                _end = .
                0x1fff82b0                __end = .
                0x1fff82b0                PROVIDE (end, .)
                0x1fff82b0                PROVIDE (__bss_end__, .)
                0x00002a00                __cy_region_init_ram = LOADADDR (.data)
                0x00000080                __cy_region_init_size_ram = (_edata - ADDR (.data))
                0x00000168                __cy_region_zero_size_ram = (_end - _edata)

.heap           0x1fff82b0       0x80 load address 0x00002a80
                0x1fff82b0                . = _end
                0x1fff8330                . = (. + 0x80)
 *fill*         0x1fff82b0       0x80 
                0x1fff8330                __cy_heap_limit = .

.stack          0x20007800      0x800
                0x20007800                __cy_stack_limit = .
                0x20008000                . = (. + 0x800)
 *fill*         0x20007800      0x800 
                0x00000001                ASSERT ((__cy_stack_limit >= __cy_heap_limit), region RAM overflowed with stack)
                0x00000000                cy_checksum_exclude_size = (CY_APPL_LOADABLE == 0x1)?SIZEOF (.cy_checksum_exclude):0x0
                0x00000001                ASSERT ((cy_checksum_exclude_size <= CY_CHECKSUM_EXCLUDE_SIZE), CY_BOOT: Section .cy_checksum_exclude size exceedes specified limit.)

.cyloadermeta   0x0003ffc0       0x40
 *(.cyloadermeta)
 .cyloadermeta  0x0003ffc0       0x40 lib/bootloader.a(cymetadata.o)
                0x0003ffc0                cy_meta_loader

.cyloadablemeta
 *(.cyloadablemeta)

.cyconfigecc    0x80000000        0x1
 *(.cyconfigecc)
 .cyconfigecc   0x80000000        0x1 lib/bootloader.a(cymetadata.o)
                0x80000000                cy_meta_configecc

.cycustnvl      0x90000000        0x4
 *(.cycustnvl)
 .cycustnvl     0x90000000        0x4 lib/bootloader.a(cymetadata.o)
                0x90000000                cy_meta_custnvl

.cywolatch      0x90100000        0x4
 *(.cywolatch)
 .cywolatch     0x90100000        0x4 lib/bootloader.a(cymetadata.o)
                0x90100000                cy_meta_wonvl

.cyeeprom       0x90200000        0x0
 *(.cyeeprom)
                0x00000001                ASSERT ((. <= ((0x90200000 + ee_offset) + ee_size)), .cyeeprom data will not fit in EEPROM)

.cyflashprotect
                0x90400000      0x100
 *(.cyflashprotect)
 .cyflashprotect
                0x90400000      0x100 lib/bootloader.a(cymetadata.o)
                0x90400000                cy_meta_flashprotect

.cymeta         0x90500000        0xc
 *(.cymeta)
 .cymeta        0x90500000        0xc lib/bootloader.a(cymetadata.o)
                0x90500000                cy_metadata

.rel.dyn        0x00002a80        0x0 load address 0x9050000c
 .rel.iplt      0x00002a80        0x0 c:/program files (x86)/cypress/psoc creator/4.2/psoc creator/import/gnu/arm/5.4.1/bin/../lib/gcc/arm-none-eabi/5.4.1/armv7-m/crtbegin.o

.stab
 *(.stab)

.stabstr
 *(.stabstr)

.debug
 *(.debug)

.line
 *(.line)

.debug_srcinfo
 *(.debug_srcinfo)

.debug_sfnames
 *(.debug_sfnames)

.debug_aranges  0x00000000      0x938
 *(.debug_aranges)
 .debug_aranges
                0x00000000       0x18 lib/bootloader.a(cymetadata.o)
 .debug_aranges
                0x00000018       0x48 lib/bootloader.a(Cm3Start.o)
 .debug_aranges
                0x00000060      0x2a0 lib/bootloader.a(CyLib.o)
 .debug_aranges
                0x00000300       0x20 lib/bootloader.a(CyBootAsmGnu.o)
 .debug_aranges
                0x00000320       0x58 lib/bootloader.a(cyfitter_cfg.o)
 .debug_aranges
                0x00000378       0x88 lib/bootloader.a(Bootloader.o)
 .debug_aranges
                0x00000400       0x40 lib/bootloader.a(USBFS_boot.o)
 .debug_aranges
                0x00000440       0x98 lib/bootloader.a(cyPm.o)
 .debug_aranges
                0x000004d8       0x88 lib/bootloader.a(CyFlash.o)
 .debug_aranges
                0x00000560       0xc8 lib/bootloader.a(USBFS.o)
 .debug_aranges
                0x00000628       0x48 lib/bootloader.a(USBFS_hid.o)
 .debug_aranges
                0x00000670       0x48 lib/bootloader.a(USBFS_Dp.o)
 .debug_aranges
                0x000006b8       0x38 lib/bootloader.a(USBFS_episr.o)
 .debug_aranges
                0x000006f0       0x98 lib/bootloader.a(USBFS_drv.o)
 .debug_aranges
                0x00000788       0x20 lib/bootloader.a(USBFS_cls.o)
 .debug_aranges
                0x000007a8       0x80 lib/bootloader.a(CySpc.o)
 .debug_aranges
                0x00000828       0x20 lib/bootloader.a(USBFS_vnd.o)
 .debug_aranges
                0x00000848       0x40 lib/bootloader.a(USBFS_pm.o)
 .debug_aranges
                0x00000888       0x78 lib/bootloader.a(USBFS_std.o)
 .debug_aranges
                0x00000900       0x18 lib/bootloader.a(USBFS_descr.o)
 .debug_aranges
                0x00000918       0x20 main.o

.debug_pubnames
 *(.debug_pubnames)

.debug_info     0x00000000     0x7274
 *(.debug_info .gnu.linkonce.wi.*)
 .debug_info    0x00000000      0x15a lib/bootloader.a(cymetadata.o)
 .debug_info    0x0000015a      0x3cf lib/bootloader.a(Cm3Start.o)
 .debug_info    0x00000529     0x1374 lib/bootloader.a(CyLib.o)
 .debug_info    0x0000189d       0x7e lib/bootloader.a(CyBootAsmGnu.o)
 .debug_info    0x0000191b      0x4e0 lib/bootloader.a(cyfitter_cfg.o)
 .debug_info    0x00001dfb      0xd71 lib/bootloader.a(Bootloader.o)
 .debug_info    0x00002b6c      0x392 lib/bootloader.a(USBFS_boot.o)
 .debug_info    0x00002efe      0xa2a lib/bootloader.a(cyPm.o)
 .debug_info    0x00003928      0x64d lib/bootloader.a(CyFlash.o)
 .debug_info    0x00003f75      0x99a lib/bootloader.a(USBFS.o)
 .debug_info    0x0000490f      0x43b lib/bootloader.a(USBFS_hid.o)
 .debug_info    0x00004d4a      0x174 lib/bootloader.a(USBFS_Dp.o)
 .debug_info    0x00004ebe      0x243 lib/bootloader.a(USBFS_episr.o)
 .debug_info    0x00005101      0x655 lib/bootloader.a(USBFS_drv.o)
 .debug_info    0x00005756      0x1de lib/bootloader.a(USBFS_cls.o)
 .debug_info    0x00005934      0x550 lib/bootloader.a(CySpc.o)
 .debug_info    0x00005e84      0x1be lib/bootloader.a(USBFS_vnd.o)
 .debug_info    0x00006042      0x2e4 lib/bootloader.a(USBFS_pm.o)
 .debug_info    0x00006326      0xa3d lib/bootloader.a(USBFS_std.o)
 .debug_info    0x00006d63      0x42d lib/bootloader.a(USBFS_descr.o)
 .debug_info    0x00007190       0xe4 main.o

.debug_abbrev   0x00000000     0x1af6
 *(.debug_abbrev)
 .debug_abbrev  0x00000000       0x5d lib/bootloader.a(cymetadata.o)
 .debug_abbrev  0x0000005d      0x1e8 lib/bootloader.a(Cm3Start.o)
 .debug_abbrev  0x00000245      0x254 lib/bootloader.a(CyLib.o)
 .debug_abbrev  0x00000499       0x14 lib/bootloader.a(CyBootAsmGnu.o)
 .debug_abbrev  0x000004ad      0x1c1 lib/bootloader.a(cyfitter_cfg.o)
 .debug_abbrev  0x0000066e      0x20a lib/bootloader.a(Bootloader.o)
 .debug_abbrev  0x00000878       0xfb lib/bootloader.a(USBFS_boot.o)
 .debug_abbrev  0x00000973      0x1ab lib/bootloader.a(cyPm.o)
 .debug_abbrev  0x00000b1e      0x1a7 lib/bootloader.a(CyFlash.o)
 .debug_abbrev  0x00000cc5      0x215 lib/bootloader.a(USBFS.o)
 .debug_abbrev  0x00000eda      0x16d lib/bootloader.a(USBFS_hid.o)
 .debug_abbrev  0x00001047       0x90 lib/bootloader.a(USBFS_Dp.o)
 .debug_abbrev  0x000010d7      0x11b lib/bootloader.a(USBFS_episr.o)
 .debug_abbrev  0x000011f2      0x189 lib/bootloader.a(USBFS_drv.o)
 .debug_abbrev  0x0000137b       0xe1 lib/bootloader.a(USBFS_cls.o)
 .debug_abbrev  0x0000145c      0x194 lib/bootloader.a(CySpc.o)
 .debug_abbrev  0x000015f0       0xe1 lib/bootloader.a(USBFS_vnd.o)
 .debug_abbrev  0x000016d1      0x108 lib/bootloader.a(USBFS_pm.o)
 .debug_abbrev  0x000017d9      0x1d8 lib/bootloader.a(USBFS_std.o)
 .debug_abbrev  0x000019b1       0xbb lib/bootloader.a(USBFS_descr.o)
 .debug_abbrev  0x00001a6c       0x8a main.o

.debug_line     0x00000000     0x2a85
 *(.debug_line)
 .debug_line    0x00000000      0x134 lib/bootloader.a(cymetadata.o)
 .debug_line    0x00000134      0x228 lib/bootloader.a(Cm3Start.o)
 .debug_line    0x0000035c      0x809 lib/bootloader.a(CyLib.o)
 .debug_line    0x00000b65       0x59 lib/bootloader.a(CyBootAsmGnu.o)
 .debug_line    0x00000bbe      0x196 lib/bootloader.a(cyfitter_cfg.o)
 .debug_line    0x00000d54      0x5f3 lib/bootloader.a(Bootloader.o)
 .debug_line    0x00001347       0xe9 lib/bootloader.a(USBFS_boot.o)
 .debug_line    0x00001430      0x35a lib/bootloader.a(cyPm.o)
 .debug_line    0x0000178a      0x20d lib/bootloader.a(CyFlash.o)
 .debug_line    0x00001997      0x2e3 lib/bootloader.a(USBFS.o)
 .debug_line    0x00001c7a      0x13c lib/bootloader.a(USBFS_hid.o)
 .debug_line    0x00001db6       0xac lib/bootloader.a(USBFS_Dp.o)
 .debug_line    0x00001e62       0xb8 lib/bootloader.a(USBFS_episr.o)
 .debug_line    0x00001f1a      0x20e lib/bootloader.a(USBFS_drv.o)
 .debug_line    0x00002128       0x7d lib/bootloader.a(USBFS_cls.o)
 .debug_line    0x000021a5      0x253 lib/bootloader.a(CySpc.o)
 .debug_line    0x000023f8       0x78 lib/bootloader.a(USBFS_vnd.o)
 .debug_line    0x00002470       0xf9 lib/bootloader.a(USBFS_pm.o)
 .debug_line    0x00002569      0x370 lib/bootloader.a(USBFS_std.o)
 .debug_line    0x000028d9       0x50 lib/bootloader.a(USBFS_descr.o)
 .debug_line    0x00002929      0x15c main.o

.debug_frame    0x00000000     0x1600
 *(.debug_frame)
 .debug_frame   0x00000000       0xa0 lib/bootloader.a(Cm3Start.o)
 .debug_frame   0x000000a0      0x698 lib/bootloader.a(CyLib.o)
 .debug_frame   0x00000738       0xc8 lib/bootloader.a(cyfitter_cfg.o)
 .debug_frame   0x00000800      0x194 lib/bootloader.a(Bootloader.o)
 .debug_frame   0x00000994       0x94 lib/bootloader.a(USBFS_boot.o)
 .debug_frame   0x00000a28      0x1b8 lib/bootloader.a(cyPm.o)
 .debug_frame   0x00000be0      0x160 lib/bootloader.a(CyFlash.o)
 .debug_frame   0x00000d40      0x1bc lib/bootloader.a(USBFS.o)
 .debug_frame   0x00000efc       0x90 lib/bootloader.a(USBFS_hid.o)
 .debug_frame   0x00000f8c       0x70 lib/bootloader.a(USBFS_Dp.o)
 .debug_frame   0x00000ffc       0x58 lib/bootloader.a(USBFS_episr.o)
 .debug_frame   0x00001054      0x16c lib/bootloader.a(USBFS_drv.o)
 .debug_frame   0x000011c0       0x28 lib/bootloader.a(USBFS_cls.o)
 .debug_frame   0x000011e8      0x154 lib/bootloader.a(CySpc.o)
 .debug_frame   0x0000133c       0x28 lib/bootloader.a(USBFS_vnd.o)
 .debug_frame   0x00001364       0x8c lib/bootloader.a(USBFS_pm.o)
 .debug_frame   0x000013f0      0x12c lib/bootloader.a(USBFS_std.o)
 .debug_frame   0x0000151c       0x28 main.o
 .debug_frame   0x00001544       0x20 c:/program files (x86)/cypress/psoc creator/4.2/psoc creator/import/gnu/arm/5.4.1/bin/../lib/gcc/arm-none-eabi/5.4.1/../../../../arm-none-eabi/lib/armv7-m\libg_nano.a(lib_a-errno.o)
 .debug_frame   0x00001564       0x28 c:/program files (x86)/cypress/psoc creator/4.2/psoc creator/import/gnu/arm/5.4.1/bin/../lib/gcc/arm-none-eabi/5.4.1/../../../../arm-none-eabi/lib/armv7-m\libg_nano.a(lib_a-exit.o)
 .debug_frame   0x0000158c       0x2c c:/program files (x86)/cypress/psoc creator/4.2/psoc creator/import/gnu/arm/5.4.1/bin/../lib/gcc/arm-none-eabi/5.4.1/../../../../arm-none-eabi/lib/armv7-m\libg_nano.a(lib_a-init.o)
 .debug_frame   0x000015b8       0x28 c:/program files (x86)/cypress/psoc creator/4.2/psoc creator/import/gnu/arm/5.4.1/bin/../lib/gcc/arm-none-eabi/5.4.1/../../../../arm-none-eabi/lib/armv7-m\libg_nano.a(lib_a-memcpy-stub.o)
 .debug_frame   0x000015e0       0x20 c:/program files (x86)/cypress/psoc creator/4.2/psoc creator/import/gnu/arm/5.4.1/bin/../lib/gcc/arm-none-eabi/5.4.1/../../../../arm-none-eabi/lib/armv7-m\libg_nano.a(lib_a-memset.o)

.debug_str      0x00000000     0x26a9
 *(.debug_str)
 .debug_str     0x00000000      0x1a5 lib/bootloader.a(cymetadata.o)
                                0x1e1 (size before relaxing)
 .debug_str     0x000001a5      0x18e lib/bootloader.a(Cm3Start.o)
                                0x30c (size before relaxing)
 .debug_str     0x00000333      0x870 lib/bootloader.a(CyLib.o)
                                0xa35 (size before relaxing)
 .debug_str     0x00000ba3      0x12e lib/bootloader.a(cyfitter_cfg.o)
                                0x306 (size before relaxing)
 .debug_str     0x00000cd1      0x4f6 lib/bootloader.a(Bootloader.o)
                                0x6f9 (size before relaxing)
 .debug_str     0x000011c7       0xdb lib/bootloader.a(USBFS_boot.o)
                                0x2e2 (size before relaxing)
 .debug_str     0x000012a2      0x358 lib/bootloader.a(cyPm.o)
                                0x721 (size before relaxing)
 .debug_str     0x000015fa      0x158 lib/bootloader.a(CyFlash.o)
                                0x3ae (size before relaxing)
 .debug_str     0x00001752      0x36a lib/bootloader.a(USBFS.o)
                                0x61a (size before relaxing)
 .debug_str     0x00001abc      0x1d2 lib/bootloader.a(USBFS_hid.o)
                                0x3c6 (size before relaxing)
 .debug_str     0x00001c8e       0x8b lib/bootloader.a(USBFS_Dp.o)
                                0x221 (size before relaxing)
 .debug_str     0x00001d19       0x58 lib/bootloader.a(USBFS_episr.o)
                                0x2a8 (size before relaxing)
 .debug_str     0x00001d71      0x254 lib/bootloader.a(USBFS_drv.o)
                                0x5e2 (size before relaxing)
 .debug_str     0x00001fc5       0x16 lib/bootloader.a(USBFS_cls.o)
                                0x28c (size before relaxing)
 .debug_str     0x00001fdb       0x9f lib/bootloader.a(CySpc.o)
                                0x326 (size before relaxing)
 .debug_str     0x0000207a       0x35 lib/bootloader.a(USBFS_vnd.o)
                                0x26d (size before relaxing)
 .debug_str     0x000020af       0xb1 lib/bootloader.a(USBFS_pm.o)
                                0x2c6 (size before relaxing)
 .debug_str     0x00002160      0x226 lib/bootloader.a(USBFS_std.o)
                                0x701 (size before relaxing)
 .debug_str     0x00002386      0x2e0 lib/bootloader.a(USBFS_descr.o)
                                0x59b (size before relaxing)
 .debug_str     0x00002666       0x43 main.o
                                0x1b1 (size before relaxing)

.debug_loc      0x00000000     0x3deb
 *(.debug_loc)
 .debug_loc     0x00000000      0x144 lib/bootloader.a(Cm3Start.o)
 .debug_loc     0x00000144      0xa11 lib/bootloader.a(CyLib.o)
 .debug_loc     0x00000b55      0x1f1 lib/bootloader.a(cyfitter_cfg.o)
 .debug_loc     0x00000d46      0xecf lib/bootloader.a(Bootloader.o)
 .debug_loc     0x00001c15      0x238 lib/bootloader.a(USBFS_boot.o)
 .debug_loc     0x00001e4d      0x1e4 lib/bootloader.a(cyPm.o)
 .debug_loc     0x00002031      0x3b2 lib/bootloader.a(CyFlash.o)
 .debug_loc     0x000023e3      0x435 lib/bootloader.a(USBFS.o)
 .debug_loc     0x00002818      0x3a8 lib/bootloader.a(USBFS_hid.o)
 .debug_loc     0x00002bc0       0x84 lib/bootloader.a(USBFS_Dp.o)
 .debug_loc     0x00002c44      0x171 lib/bootloader.a(USBFS_drv.o)
 .debug_loc     0x00002db5       0x47 lib/bootloader.a(USBFS_cls.o)
 .debug_loc     0x00002dfc      0x705 lib/bootloader.a(CySpc.o)
 .debug_loc     0x00003501       0x36 lib/bootloader.a(USBFS_vnd.o)
 .debug_loc     0x00003537       0x26 lib/bootloader.a(USBFS_pm.o)
 .debug_loc     0x0000355d      0x88e lib/bootloader.a(USBFS_std.o)

.debug_macinfo
 *(.debug_macinfo)

.debug_ranges   0x00000000      0x958
 *(.debug_ranges)
 .debug_ranges  0x00000000       0x38 lib/bootloader.a(Cm3Start.o)
 .debug_ranges  0x00000038      0x290 lib/bootloader.a(CyLib.o)
 .debug_ranges  0x000002c8       0x48 lib/bootloader.a(cyfitter_cfg.o)
 .debug_ranges  0x00000310      0x1f0 lib/bootloader.a(Bootloader.o)
 .debug_ranges  0x00000500       0x30 lib/bootloader.a(USBFS_boot.o)
 .debug_ranges  0x00000530       0x88 lib/bootloader.a(cyPm.o)
 .debug_ranges  0x000005b8       0x78 lib/bootloader.a(CyFlash.o)
 .debug_ranges  0x00000630       0xd0 lib/bootloader.a(USBFS.o)
 .debug_ranges  0x00000700       0x38 lib/bootloader.a(USBFS_hid.o)
 .debug_ranges  0x00000738       0x38 lib/bootloader.a(USBFS_Dp.o)
 .debug_ranges  0x00000770       0x28 lib/bootloader.a(USBFS_episr.o)
 .debug_ranges  0x00000798       0x88 lib/bootloader.a(USBFS_drv.o)
 .debug_ranges  0x00000820       0x10 lib/bootloader.a(USBFS_cls.o)
 .debug_ranges  0x00000830       0x70 lib/bootloader.a(CySpc.o)
 .debug_ranges  0x000008a0       0x10 lib/bootloader.a(USBFS_vnd.o)
 .debug_ranges  0x000008b0       0x30 lib/bootloader.a(USBFS_pm.o)
 .debug_ranges  0x000008e0       0x68 lib/bootloader.a(USBFS_std.o)
 .debug_ranges  0x00000948       0x10 main.o

.comment        0x00000000       0x6e
 .comment       0x00000000       0x6e lib/bootloader.a(cymetadata.o)
                                 0x6f (size before relaxing)
 .comment       0x0000006e       0x6f lib/bootloader.a(Cm3Start.o)
 .comment       0x0000006e       0x6f lib/bootloader.a(CyLib.o)
 .comment       0x0000006e       0x6f lib/bootloader.a(cyfitter_cfg.o)
 .comment       0x0000006e       0x6f lib/bootloader.a(Bootloader.o)
 .comment       0x0000006e       0x6f lib/bootloader.a(USBFS_boot.o)
 .comment       0x0000006e       0x6f lib/bootloader.a(cyPm.o)
 .comment       0x0000006e       0x6f lib/bootloader.a(CyFlash.o)
 .comment       0x0000006e       0x6f lib/bootloader.a(USBFS.o)
 .comment       0x0000006e       0x6f lib/bootloader.a(USBFS_hid.o)
 .comment       0x0000006e       0x6f lib/bootloader.a(USBFS_Dp.o)
 .comment       0x0000006e       0x6f lib/bootloader.a(USBFS_episr.o)
 .comment       0x0000006e       0x6f lib/bootloader.a(USBFS_drv.o)
 .comment       0x0000006e       0x6f lib/bootloader.a(USBFS_cls.o)
 .comment       0x0000006e       0x6f lib/bootloader.a(CySpc.o)
 .comment       0x0000006e       0x6f lib/bootloader.a(USBFS_vnd.o)
 .comment       0x0000006e       0x6f lib/bootloader.a(USBFS_pm.o)
 .comment       0x0000006e       0x6f lib/bootloader.a(USBFS_std.o)
 .comment       0x0000006e       0x6f lib/bootloader.a(USBFS_descr.o)
 .comment       0x0000006e       0x6f main.o

.debug_weaknames
 *(.debug_weaknames)

.debug_funcnames
 *(.debug_funcnames)

.debug_typenames
 *(.debug_typenames)

.debug_varnames
 *(.debug_varnames)

.note.gnu.arm.ident
 *(.note.gnu.arm.ident)

.ARM.attributes
                0x00000000       0x29
 *(.ARM.attributes)
 .ARM.attributes
                0x00000000       0x1d c:/program files (x86)/cypress/psoc creator/4.2/psoc creator/import/gnu/arm/5.4.1/bin/../lib/gcc/arm-none-eabi/5.4.1/armv7-m/crti.o
 .ARM.attributes
                0x0000001d       0x2d c:/program files (x86)/cypress/psoc creator/4.2/psoc creator/import/gnu/arm/5.4.1/bin/../lib/gcc/arm-none-eabi/5.4.1/armv7-m/crtbegin.o
 .ARM.attributes
                0x0000004a       0x1b c:/program files (x86)/cypress/psoc creator/4.2/psoc creator/import/gnu/arm/5.4.1/bin/../lib/gcc/arm-none-eabi/5.4.1/../../../../arm-none-eabi/lib/armv7-m/crt0.o
 .ARM.attributes
                0x00000065       0x33 lib/bootloader.a(cymetadata.o)
 .ARM.attributes
                0x00000098       0x33 lib/bootloader.a(Cm3Start.o)
 .ARM.attributes
                0x000000cb       0x33 lib/bootloader.a(CyLib.o)
 .ARM.attributes
                0x000000fe       0x21 lib/bootloader.a(CyBootAsmGnu.o)
 .ARM.attributes
                0x0000011f       0x33 lib/bootloader.a(cyfitter_cfg.o)
 .ARM.attributes
                0x00000152       0x33 lib/bootloader.a(Bootloader.o)
 .ARM.attributes
                0x00000185       0x33 lib/bootloader.a(USBFS_boot.o)
 .ARM.attributes
                0x000001b8       0x33 lib/bootloader.a(cyPm.o)
 .ARM.attributes
                0x000001eb       0x33 lib/bootloader.a(CyFlash.o)
 .ARM.attributes
                0x0000021e       0x33 lib/bootloader.a(USBFS.o)
 .ARM.attributes
                0x00000251       0x33 lib/bootloader.a(USBFS_hid.o)
 .ARM.attributes
                0x00000284       0x33 lib/bootloader.a(USBFS_Dp.o)
 .ARM.attributes
                0x000002b7       0x33 lib/bootloader.a(USBFS_episr.o)
 .ARM.attributes
                0x000002ea       0x33 lib/bootloader.a(USBFS_drv.o)
 .ARM.attributes
                0x0000031d       0x33 lib/bootloader.a(USBFS_cls.o)
 .ARM.attributes
                0x00000350       0x33 lib/bootloader.a(CySpc.o)
 .ARM.attributes
                0x00000383       0x33 lib/bootloader.a(USBFS_vnd.o)
 .ARM.attributes
                0x000003b6       0x33 lib/bootloader.a(USBFS_pm.o)
 .ARM.attributes
                0x000003e9       0x33 lib/bootloader.a(USBFS_std.o)
 .ARM.attributes
                0x0000041c       0x33 lib/bootloader.a(USBFS_descr.o)
 .ARM.attributes
                0x0000044f       0x33 main.o
 .ARM.attributes
                0x00000482       0x2d c:/program files (x86)/cypress/psoc creator/4.2/psoc creator/import/gnu/arm/5.4.1/bin/../lib/gcc/arm-none-eabi/5.4.1/../../../../arm-none-eabi/lib/armv7-m\libg_nano.a(lib_a-errno.o)
 .ARM.attributes
                0x000004af       0x2d c:/program files (x86)/cypress/psoc creator/4.2/psoc creator/import/gnu/arm/5.4.1/bin/../lib/gcc/arm-none-eabi/5.4.1/../../../../arm-none-eabi/lib/armv7-m\libg_nano.a(lib_a-exit.o)
 .ARM.attributes
                0x000004dc       0x2d c:/program files (x86)/cypress/psoc creator/4.2/psoc creator/import/gnu/arm/5.4.1/bin/../lib/gcc/arm-none-eabi/5.4.1/../../../../arm-none-eabi/lib/armv7-m\libg_nano.a(lib_a-impure.o)
 .ARM.attributes
                0x00000509       0x2d c:/program files (x86)/cypress/psoc creator/4.2/psoc creator/import/gnu/arm/5.4.1/bin/../lib/gcc/arm-none-eabi/5.4.1/../../../../arm-none-eabi/lib/armv7-m\libg_nano.a(lib_a-init.o)
 .ARM.attributes
                0x00000536       0x2d c:/program files (x86)/cypress/psoc creator/4.2/psoc creator/import/gnu/arm/5.4.1/bin/../lib/gcc/arm-none-eabi/5.4.1/../../../../arm-none-eabi/lib/armv7-m\libg_nano.a(lib_a-memcpy-stub.o)
 .ARM.attributes
                0x00000563       0x2d c:/program files (x86)/cypress/psoc creator/4.2/psoc creator/import/gnu/arm/5.4.1/bin/../lib/gcc/arm-none-eabi/5.4.1/../../../../arm-none-eabi/lib/armv7-m\libg_nano.a(lib_a-memset.o)
 .ARM.attributes
                0x00000590       0x2d c:/program files (x86)/cypress/psoc creator/4.2/psoc creator/import/gnu/arm/5.4.1/bin/../lib/gcc/arm-none-eabi/5.4.1/armv7-m/crtend.o
 .ARM.attributes
                0x000005bd       0x1d c:/program files (x86)/cypress/psoc creator/4.2/psoc creator/import/gnu/arm/5.4.1/bin/../lib/gcc/arm-none-eabi/5.4.1/armv7-m/crtn.o

/DISCARD/
 *(.note.GNU-stack)
OUTPUT(bootloader.elf elf32-littlearm)
